 SnpDxe

 Timestamp is 527c4166 (Fri Nov 08 09:41:58 2013)

 Preferred load address is 00000000

 Start         Length     Name                   Class
 0001:00000000 00000194H .data                   CODE
 0001:00000198 00001874H .rdata                  CODE
 0001:00001a0c 000044ccH .text                   CODE
 0001:00005ee0 00000030H .bss                    CODE

  Address         Publics by Value              Rva+Base       Lib:Object

 0001:00000000       _gEfiLoadedImageProtocolGuid 00000220     SnpDxe:AutoGen.obj
 0001:00000010       _gEfiHiiFontProtocolGuid   00000230     SnpDxe:AutoGen.obj
 0001:00000020       _gEfiHiiDatabaseProtocolGuid 00000240     SnpDxe:AutoGen.obj
 0001:00000030       _gEfiHiiConfigRoutingProtocolGuid 00000250     SnpDxe:AutoGen.obj
 0001:00000040       _gEfiComponentName2ProtocolGuid 00000260     SnpDxe:AutoGen.obj
 0001:00000050       _gEfiNetworkInterfaceIdentifierProtocolGuid_31 00000270     SnpDxe:AutoGen.obj
 0001:00000060       _gEfiHiiImageProtocolGuid  00000280     SnpDxe:AutoGen.obj
 0001:00000070       _gEfiDevicePathProtocolGuid 00000290     SnpDxe:AutoGen.obj
 0001:00000080       _gEfiPciIoProtocolGuid     000002a0     SnpDxe:AutoGen.obj
 0001:00000090       _gEfiEventExitBootServicesGuid 000002b0     SnpDxe:AutoGen.obj
 0001:000000a0       _gEfiHiiStringProtocolGuid 000002c0     SnpDxe:AutoGen.obj
 0001:000000b0       _gEfiSimpleNetworkProtocolGuid 000002d0     SnpDxe:AutoGen.obj
 0001:000000c0       _gEfiDriverBindingProtocolGuid 000002e0     SnpDxe:AutoGen.obj
 0001:000000d0       _gEfiComponentNameProtocolGuid 000002f0     SnpDxe:AutoGen.obj
 0001:000000e0       _gSimpleNetworkDriverBinding 00000300     SnpDxe:Snp.obj
 0001:000000f8       _gSimpleNetworkComponentName2 00000318     SnpDxe:ComponentName.obj
 0001:00000104       _gSimpleNetworkComponentName 00000324     SnpDxe:ComponentName.obj
 0001:00000110       _mSimpleNetworkDriverNameTable 00000330     SnpDxe:ComponentName.obj
 0001:00000120       _mStatusString             00000340     BasePrintLib:PrintLibInternal.obj
 0001:00000198       ??_C@_0CB@DMEJJJHA@?6ASSERT_EFI_ERROR?5?$CIStatus?5?$DN?5?$CFr?$CJ?6@ 000003b8     UefiDriverEntryPoint:DriverEntryPoint.obj
 0001:000001bc       ??_C@_0BE@DCHLEIGN@?$CBEFI_ERROR?5?$CIStatus?$CJ?$AA@ 000003dc     UefiDriverEntryPoint:DriverEntryPoint.obj
 0001:000001d0       ??_C@_0EG@POHNLCG@d?3?2myworkspace?2MdePkg?2Library?2Ue@ 000003f0     UefiDriverEntryPoint:DriverEntryPoint.obj
 0001:00000218       __gUefiDriverRevision      00000438     SnpDxe:AutoGen.obj
 0001:00000220       ??_C@_0HH@EPLBAGCC@d?3?2myworkspace?2Build?2MdeModule?2R@ 00000440     SnpDxe:AutoGen.obj
 0001:00000298       ??_C@_0DD@HKACBHBE@?6IssueHwUndiCommand?$CI?$CJ?5?9?5This?5sho@ 000004b8     SnpDxe:Snp.obj
 0001:000002cc       ??_C@_0CK@LKLFDLHA@Support?$CI?$CJ?3?5Already?5Started?4?5on?5h@ 000004ec     SnpDxe:Snp.obj
 0001:000002f8       ??_C@_0CH@MOIHENEN@Support?$CI?$CJ?3?5UNDI3?41?5found?5on?5hand@ 00000518     SnpDxe:Snp.obj
 0001:00000320       ??_C@_0CL@GKCBOKHI@?6?$CBPXE?5structure?5is?5not?5paragraph@ 00000540     SnpDxe:Snp.obj
 0001:0000034c       ??_C@_0BP@EEDPPLOA@?6?$CBPXE?5signature?5is?5not?5valid?4?6?$AA@ 0000056c     SnpDxe:Snp.obj
 0001:0000036c       ??_C@_0BN@NDKHMMBD@?6?$CBPXE?4Rev?5is?5not?5supported?4?6?$AA@ 0000058c     SnpDxe:Snp.obj
 0001:0000038c       ??_C@_0CC@MLAHNPKL@?6?$CBPXE?4MajorVer?5is?5not?5supported?4@ 000005ac     SnpDxe:Snp.obj
 0001:000003b0       ??_C@_0CB@CICNKJOJ@?6?$CBPXE?4MinorVer?5is?5not?5supported?4@ 000005d0     SnpDxe:Snp.obj
 0001:000003d4       ??_C@_0CE@CENCECIF@?6?$CBPXE?5S?1W?5entry?5point?5is?5not?5val@ 000005f4     SnpDxe:Snp.obj
 0001:000003f8       ??_C@_0BG@NOAIPPPI@?6?$CBPXE?4BusCnt?5is?5zero?4?$AA@ 00000618     SnpDxe:Snp.obj
 0001:00000410       ??_C@_0BM@HNFIGFPF@Support?$CI?$CJ?3?5supported?5on?5?$CFp?6?$AA@ 00000630     SnpDxe:Snp.obj
 0001:0000042c       ??_C@_0CJ@DJGKPPOD@?6SnpNotifyNetworkInterfaceIdenti@ 0000064c     SnpDxe:Snp.obj
 0001:00000458       ??_C@_0BI@FMBEHHHO@Start?$CI?$CJ?3?5UNDI3?41?5found?6?$AA@ 00000678     SnpDxe:Snp.obj
 0001:00000470       ??_C@_0CA@FKHPBMLJ@?6?$CBPXE?5checksum?5is?5not?5correct?4?6?$AA@ 00000690     SnpDxe:Snp.obj
 0001:00000490       ??_C@_0DG@MCBBBEDA@?6UNDI?5does?5not?5have?5promiscuous?5@ 000006b0     SnpDxe:Snp.obj
 0001:000004c8       ??_C@_0CL@EEBCPBMA@?6Could?5not?5allocate?5SNP_DRIVER?5s@ 000006e8     SnpDxe:Snp.obj
 0001:000004f4       ??_C@_0CM@HEOHGCJM@?6Could?5not?5allocate?5CPB?5and?5DB?5s@ 00000714     SnpDxe:Snp.obj
 0001:00000520       ??_C@_0BN@NIBKMAEN@?6Snp?9?$DOundi?4get_init_info?$CI?$CJ?5?5?$AA@ 00000740     SnpDxe:Snp.obj
 0001:00000540       ??_C@_0CB@LLMJHKOI@?6Snp?9?$DOundi?4init_info?$CI?$CJ?5?5?$CFxh?3?$CFxh?6@ 00000760     SnpDxe:Snp.obj
 0001:00000564       ??_C@_0BP@DCKJOMIA@?6Snp?9?$DOundi?4get_config_info?$CI?$CJ?5?5?$AA@ 00000784     SnpDxe:Snp.obj
 0001:00000584       ??_C@_0CD@BOGIKJPF@?6Snp?9?$DOundi?4config_info?$CI?$CJ?5?5?$CFxh?3?$CFx@ 000007a4     SnpDxe:Snp.obj
 0001:000005a8       ??_C@_0CH@MHAFHCOP@?6Snp?9?$DOundi?4get_station_addr?$CI?$CJ?5fa@ 000007c8     SnpDxe:Snp.obj
 0001:000005d0       ??_C@_0BF@NDBIKIKC@CR?5has?5Bad?5Signature?$AA@ 000007f0     SnpDxe:Snp.obj
 0001:000005e8       ??_C@_0DL@JKNEKCJG@d?3?2myworkspace?2MdeModulePkg?2Univ@ 00000808     SnpDxe:Snp.obj
 0001:00000624       ??_C@_0BF@BHJGCPFK@?6snp?9?$DOundi?4reset?$CI?$CJ?5?5?$AA@ 00000844     SnpDxe:Reset.obj
 0001:0000063c       ??_C@_0BP@ICPEKHCF@?6snp?9?$DOundi32?4reset?$CI?$CJ?5?5?$CFxh?3?$CFxh?6?$AA@ 0000085c     SnpDxe:Reset.obj
 0001:0000065c       ??_C@_0CP@PACIEKAH@ExtendedVerification?5?$DN?5?$CFd?5is?5not@ 0000087c     SnpDxe:Reset.obj
 0001:0000068c       ??_C@_0DN@MJBEAGLG@d?3?2myworkspace?2MdeModulePkg?2Univ@ 000008ac     SnpDxe:Reset.obj
 0001:000006cc       ??_C@_0BL@GBDGACCI@?6Snp?9?$DOundi?4fill_header?$CI?$CJ?5?5?$AA@ 000008ec     SnpDxe:Transmit.obj
 0001:000006e8       ??_C@_0CD@HKJHODBC@?6Snp?9?$DOundi?4fill_header?$CI?$CJ?5?5?$CFxh?3?$CFx@ 00000908     SnpDxe:Transmit.obj
 0001:0000070c       ??_C@_0BI@CICKKDEJ@?6Snp?9?$DOundi?4transmit?$CI?$CJ?5?5?$AA@ 0000092c     SnpDxe:Transmit.obj
 0001:00000724       ??_C@_0BI@ELGADJFF@?6Snp?9?$DOCdb?4OpCode?5?5?$DN?$DN?5?$CFx?$AA@ 00000944     SnpDxe:Transmit.obj
 0001:0000073c       ??_C@_0BJ@EFBKIGDL@?6Snp?9?$DOCdb?4CPBaddr?5?$DN?$DN?5?$CFLX?$AA@ 0000095c     SnpDxe:Transmit.obj
 0001:00000758       ??_C@_0BJ@LJMELJJE@?6Snp?9?$DOCdb?4DBaddr?5?5?$DN?$DN?5?$CFLX?$AA@ 00000978     SnpDxe:Transmit.obj
 0001:00000774       ??_C@_0BK@KKMNJGD@?6Cpb?9?$DOFrameAddr?5?5?5?$DN?$DN?5?$CFLX?6?$AA@ 00000994     SnpDxe:Transmit.obj
 0001:00000790       ??_C@_0BN@JCAAFMIO@?6exit?5Snp?9?$DOundi?4transmit?$CI?$CJ?5?5?$AA@ 000009b0     SnpDxe:Transmit.obj
 0001:000007b0       ??_C@_0BJ@CHJFKHDJ@?6Snp?9?$DOCdb?4StatCode?5?$DN?$DN?5?$CFr?$AA@ 000009d0     SnpDxe:Transmit.obj
 0001:000007cc       ??_C@_0CA@KGPNGDDF@?6Snp?9?$DOundi?4transmit?$CI?$CJ?5?5?$CFxh?3?$CFxh?6?$AA@ 000009ec     SnpDxe:Transmit.obj
 0001:000007f0       ??_C@_0EA@OBENONEL@d?3?2myworkspace?2MdeModulePkg?2Univ@ 00000a10     SnpDxe:Transmit.obj
 0001:00000830       ??_C@_0BP@OKOGGHFM@?6Snp?9?$DOundi?4mcast_ip_to_mac?$CI?$CJ?5?5?$AA@ 00000a50     SnpDxe:Mcast_ip_to_mac.obj
 0001:00000850       ??_C@_0CH@FPALICJG@?6Snp?9?$DOundi?4mcast_ip_to_mac?$CI?$CJ?5?5?$CFx@ 00000a70     SnpDxe:Mcast_ip_to_mac.obj
 0001:00000878       ??_C@_0EH@CGKIEKJJ@d?3?2myworkspace?2MdeModulePkg?2Univ@ 00000a98     SnpDxe:Mcast_ip_to_mac.obj
 0001:000008c0       ??_C@_0CL@JCGPCHHD@?6Snp?9?$DOPxeInit?$CI?$CJ?5?5AllocateBuffer?5@ 00000ae0     SnpDxe:Initialize.obj
 0001:000008ec       ??_C@_04LKNNGBMH@Addr?$AA@ 00000b0c     SnpDxe:Initialize.obj
 0001:000008f8       ??_C@_0EC@KKIKPJOA@d?3?2myworkspace?2MdeModulePkg?2Univ@ 00000b18     SnpDxe:Initialize.obj
 0001:0000093c       ??_C@_0BK@PBEOPBDC@?6Snp?9?$DOundi?4initialize?$CI?$CJ?5?5?$AA@ 00000b5c     SnpDxe:Initialize.obj
 0001:00000958       ??_C@_0CC@PEANEGAJ@?6Snp?9?$DOundi?4initialize?$CI?$CJ?5?5?$CFxh?3?$CFxh@ 00000b78     SnpDxe:Initialize.obj
 0001:0000097c       ??_C@_0BF@NPAIIGEA@?6snp?9?$DOundi?4start?$CI?$CJ?5?5?$AA@ 00000b9c     SnpDxe:Start.obj
 0001:00000994       ??_C@_0BN@JEEHEGFF@?6snp?9?$DOundi?4start?$CI?$CJ?5?5?$CFxh?3?$CFxh?6?$AA@ 00000bb4     SnpDxe:Start.obj
 0001:000009b4       ??_C@_0DN@FIMJHJFA@d?3?2myworkspace?2MdeModulePkg?2Univ@ 00000bd4     SnpDxe:Start.obj
 0001:000009f4       ??_C@_0BI@IABIOENH@?6snp?9?$DOundi?4shutdown?$CI?$CJ?5?5?$AA@ 00000c14     SnpDxe:Shutdown.obj
 0001:00000a0c       ??_C@_0CA@BELOPMPA@?6snp?9?$DOundi?4shutdown?$CI?$CJ?5?5?$CFxh?3?$CFxh?6?$AA@ 00000c2c     SnpDxe:Shutdown.obj
 0001:00000a30       ??_C@_0EA@OLGIEKCE@d?3?2myworkspace?2MdeModulePkg?2Univ@ 00000c50     SnpDxe:Shutdown.obj
 0001:00000a70       ??_C@_0BM@FAJPPKKM@?6snp?9?$DOundi?4station_addr?$CI?$CJ?5?5?$AA@ 00000c90     SnpDxe:Station_address.obj
 0001:00000a8c       ??_C@_0CE@FICFMNJM@?6snp?9?$DOundi?4station_addr?$CI?$CJ?5?5?$CFxh?3?$CF@ 00000cac     SnpDxe:Station_address.obj
 0001:00000ab0       ??_C@_0EH@IFLJHIEC@d?3?2myworkspace?2MdeModulePkg?2Univ@ 00000cd0     SnpDxe:Station_address.obj
 0001:00000af8       ??_C@_0BH@FLDAFBFA@?6snp?9?$DOundi?4nvdata?5?$CI?$CJ?5?5?$AA@ 00000d18     SnpDxe:Nvdata.obj
 0001:00000b10       ??_C@_0BO@NANKBAHB@?6snp?9?$DOundi?4nvdata?$CI?$CJ?5?5?$CFxh?3?$CFxh?6?$AA@ 00000d30     SnpDxe:Nvdata.obj
 0001:00000b30       ??_C@_0BL@JCFOAPNO@Offset?5?$DM?5sizeof?5?$CIDb?9?$DOData?$CJ?$AA@ 00000d50     SnpDxe:Nvdata.obj
 0001:00000b4c       ??_C@_0DO@FGAGALNI@d?3?2myworkspace?2MdeModulePkg?2Univ@ 00000d6c     SnpDxe:Nvdata.obj
 0001:00000b8c       ??_C@_03LKLGDMJI@eng?$AA@  00000dac     SnpDxe:ComponentName.obj
 0001:00000b90       ??_C@_02LFNMGJAP@en?$AA@   00000db0     SnpDxe:ComponentName.obj
 0001:00000b94       ??_C@_06DALJLGPG@eng?$DLen?$AA@ 00000db4     SnpDxe:ComponentName.obj
 0001:00000b9c       ??_C@_1DO@BIKFHFAA@?$AAS?$AAi?$AAm?$AAp?$AAl?$AAe?$AA?5?$AAN?$AAe?$AAt?$AAw?$AAo?$AAr?$AAk?$AA?5?$AAP?$AAr?$AAo?$AAt?$AAo?$AAc?$AAo?$AAl?$AA?5?$AAD?$AAr?$AAi?$AAv?$AAe?$AAr?$AA?$AA@ 00000dbc     SnpDxe:ComponentName.obj
 0001:00000bdc       ??_C@_1BE@DHODELAF@?$AAS?$AAN?$AAP?$AA?5?$AA?$CI?$AAM?$AAA?$AAC?$AA?$DN?$AA?$AA@ 00000dfc     SnpDxe:ComponentName.obj
 0001:00000bf0       ??_C@_1M@BJCGLODJ@?$AA?$CF?$AA0?$AA2?$AAX?$AA?9?$AA?$AA@ 00000e10     SnpDxe:ComponentName.obj
 0001:00000bfc       ??_C@_13DIBMAFH@?$AA?$CJ?$AA?$AA@ 00000e1c     SnpDxe:ComponentName.obj
 0001:00000c00       ??_C@_0BE@EHOAHBC@?6snp?9?$DOundi?4stop?$CI?$CJ?5?5?$AA@ 00000e20     SnpDxe:Stop.obj
 0001:00000c14       ??_C@_0BM@IOHLPDDM@?6snp?9?$DOundi?4stop?$CI?$CJ?5?5?$CFxh?3?$CFxh?6?$AA@ 00000e34     SnpDxe:Stop.obj
 0001:00000c30       ??_C@_0DM@EEELJNBL@d?3?2myworkspace?2MdeModulePkg?2Univ@ 00000e50     SnpDxe:Stop.obj
 0001:00000c70       ??_C@_0EC@KBDMEIL@d?3?2myworkspace?2MdeModulePkg?2Univ@ 00000e90     SnpDxe:Statistics.obj
 0001:00000cb4       ??_C@_0BK@JPABOBAK@?6snp?9?$DOundi?4statistics?$CI?$CJ?5?5?$AA@ 00000ed4     SnpDxe:Statistics.obj
 0001:00000cd0       ??_C@_0CC@BNPHODJK@?6snp?9?$DOundi?4statistics?$CI?$CJ?5?5?$CFxh?3?$CFxh@ 00000ef0     SnpDxe:Statistics.obj
 0001:00000cf4       ??_C@_0BP@JBFPGNDL@?6snp?9?$DOundi?4receive_filters?$CI?$CJ?5?5?$AA@ 00000f14     SnpDxe:Receive_filters.obj
 0001:00000d14       ??_C@_0CH@JCJCOHBJ@?6snp?9?$DOundi?4receive_filters?$CI?$CJ?5?5?$CFx@ 00000f34     SnpDxe:Receive_filters.obj
 0001:00000d40       ??_C@_0EH@FMODAOHE@d?3?2myworkspace?2MdeModulePkg?2Univ@ 00000f60     SnpDxe:Receive_filters.obj
 0001:00000d88       ??_C@_0BI@BKKGPDEO@?6snp?9?$DOundi?4receive?5?$CI?$CJ?5?5?$AA@ 00000fa8     SnpDxe:Receive.obj
 0001:00000da0       ??_C@_0CA@DNHOLMNO@?6snp?9?$DOundi?4receive?5?$CI?$CJ?5?5?$CFxh?3?$CFxh?6?$AA@ 00000fc0     SnpDxe:Receive.obj
 0001:00000dc0       ??_C@_0BP@MOABKKOP@?6snp?9?$DOundi?4receive?$CI?$CJ?5?5?$CFxh?3?$CFxh?6?$AA@ 00000fe0     SnpDxe:Receive.obj
 0001:00000de0       ??_C@_0DP@MJAEMNCJ@d?3?2myworkspace?2MdeModulePkg?2Univ@ 00001000     SnpDxe:Receive.obj
 0001:00000e20       ??_C@_0BK@HBGFOPNJ@?6Snp?9?$DOundi?4get_status?$CI?$CJ?5?5?$AA@ 00001040     SnpDxe:Get_status.obj
 0001:00000e3c       ??_C@_0CC@MBNLNNMK@?6Snp?9?$DOundi?4get_status?$CI?$CJ?5?5?$CFxh?3?$CFxh@ 0000105c     SnpDxe:Get_status.obj
 0001:00000e60       ??_C@_0EC@NHCJDIAC@d?3?2myworkspace?2MdeModulePkg?2Univ@ 00001080     SnpDxe:Get_status.obj
 0001:00000ea4       ??_C@_0BF@LOADKECJ@SNP?5maplist?5is?5FULL?6?$AA@ 000010c4     SnpDxe:Callback.obj
 0001:00000ebc       ??_C@_0DA@DCLKLPJO@SNP?5could?5not?5find?5a?5mapping?0?5fa@ 000010dc     SnpDxe:Callback.obj
 0001:00000eec       ??_C@_0CI@BGLNHBLM@?$CI?$CI?$CIUINTN?$CJ?5?$CIStartOfBuffer?$CJ?$CJ?5?$CG?50x0@ 0000110c     BasePrintLib:PrintLib.obj
 0001:00000f14       ??_C@_0DG@PDLDNIEO@d?3?2myworkspace?2MdePkg?2Library?2Ba@ 00001134     BasePrintLib:PrintLib.obj
 0001:00000f4c       ??_C@_0CH@KJLBGOBB@?$CI?$CI?$CIUINTN?$CJ?5?$CIFormatString?$CJ?$CJ?5?$CG?50x01@ 0000116c     BasePrintLib:PrintLib.obj
 0001:00000f74       ??_C@_07PBILKAFL@Success?$AA@ 00001194     BasePrintLib:PrintLibInternal.obj
 0001:00000f7c       ??_C@_0BG@CFJMNNJK@Warning?5Unknown?5Glyph?$AA@ 0000119c     BasePrintLib:PrintLibInternal.obj
 0001:00000f94       ??_C@_0BH@GKKCJEPJ@Warning?5Delete?5Failure?$AA@ 000011b4     BasePrintLib:PrintLibInternal.obj
 0001:00000fac       ??_C@_0BG@ECIJMOED@Warning?5Write?5Failure?$AA@ 000011cc     BasePrintLib:PrintLibInternal.obj
 0001:00000fc4       ??_C@_0BJ@ODIPDGHB@Warning?5Buffer?5Too?5Small?$AA@ 000011e4     BasePrintLib:PrintLibInternal.obj
 0001:00000fe0       ??_C@_0L@PLPBEPPC@Load?5Error?$AA@ 00001200     BasePrintLib:PrintLibInternal.obj
 0001:00000fec       ??_C@_0BC@HOFHKGJN@Invalid?5Parameter?$AA@ 0000120c     BasePrintLib:PrintLibInternal.obj
 0001:00001000       ??_C@_0M@BEECMOIL@Unsupported?$AA@ 00001220     BasePrintLib:PrintLibInternal.obj
 0001:0000100c       ??_C@_0BA@FLNMPMCF@Bad?5Buffer?5Size?$AA@ 0000122c     BasePrintLib:PrintLibInternal.obj
 0001:0000101c       ??_C@_0BB@EGELJFOB@Buffer?5Too?5Small?$AA@ 0000123c     BasePrintLib:PrintLibInternal.obj
 0001:00001030       ??_C@_09NKFGCIPN@Not?5Ready?$AA@ 00001250     BasePrintLib:PrintLibInternal.obj
 0001:0000103c       ??_C@_0N@HHEABDHO@Device?5Error?$AA@ 0000125c     BasePrintLib:PrintLibInternal.obj
 0001:0000104c       ??_C@_0BA@LNEDDFNB@Write?5Protected?$AA@ 0000126c     BasePrintLib:PrintLibInternal.obj
 0001:0000105c       ??_C@_0BB@GOILNEAA@Out?5of?5Resources?$AA@ 0000127c     BasePrintLib:PrintLibInternal.obj
 0001:00001070       ??_C@_0P@EIOJGIF@Volume?5Corrupt?$AA@ 00001290     BasePrintLib:PrintLibInternal.obj
 0001:00001080       ??_C@_0M@HDLEPOFA@Volume?5Full?$AA@ 000012a0     BasePrintLib:PrintLibInternal.obj
 0001:0000108c       ??_C@_08KEGAJDNN@No?5Media?$AA@ 000012ac     BasePrintLib:PrintLibInternal.obj
 0001:00001098       ??_C@_0O@JNCJKCCD@Media?5changed?$AA@ 000012b8     BasePrintLib:PrintLibInternal.obj
 0001:000010a8       ??_C@_09CFCBFJND@Not?5Found?$AA@ 000012c8     BasePrintLib:PrintLibInternal.obj
 0001:000010b4       ??_C@_0O@NFHOBIDO@Access?5Denied?$AA@ 000012d4     BasePrintLib:PrintLibInternal.obj
 0001:000010c4       ??_C@_0M@ENKCBFEP@No?5Response?$AA@ 000012e4     BasePrintLib:PrintLibInternal.obj
 0001:000010d0       ??_C@_0L@IFPBNFC@No?5mapping?$AA@ 000012f0     BasePrintLib:PrintLibInternal.obj
 0001:000010dc       ??_C@_08PAFJCNGP@Time?5out?$AA@ 000012fc     BasePrintLib:PrintLibInternal.obj
 0001:000010e8       ??_C@_0M@DCJFAFHJ@Not?5started?$AA@ 00001308     BasePrintLib:PrintLibInternal.obj
 0001:000010f4       ??_C@_0BA@IGIBFFPH@Already?5started?$AA@ 00001314     BasePrintLib:PrintLibInternal.obj
 0001:00001104       ??_C@_07LCKDCBKK@Aborted?$AA@ 00001324     BasePrintLib:PrintLibInternal.obj
 0001:0000110c       ??_C@_0L@LKIFCMNO@ICMP?5Error?$AA@ 0000132c     BasePrintLib:PrintLibInternal.obj
 0001:00001118       ??_C@_0L@DJKNJKHM@TFTP?5Error?$AA@ 00001338     BasePrintLib:PrintLibInternal.obj
 0001:00001124       ??_C@_0P@NCJHBCLM@Protocol?5Error?$AA@ 00001344     BasePrintLib:PrintLibInternal.obj
 0001:00001134       ??_C@_0BH@IACGKAP@Buffer?5?$CB?$DN?5?$CI?$CIvoid?5?$CK?$CJ?50?$CJ?$AA@ 00001354     BasePrintLib:PrintLibInternal.obj
 0001:0000114c       ??_C@_0DO@GOAMAIEG@d?3?2myworkspace?2MdePkg?2Library?2Ba@ 0000136c     BasePrintLib:PrintLibInternal.obj
 0001:0000118c       ??_C@_0CB@NIHAJGJE@StrSize?5?$CI?$CICHAR16?5?$CK?$CJ?5Format?$CJ?5?$CB?$DN?50@ 000013ac     BasePrintLib:PrintLibInternal.obj
 0001:000011b0       ??_C@_0BL@BFEFANFD@AsciiStrSize?5?$CIFormat?$CJ?5?$CB?$DN?50?$AA@ 000013d0     BasePrintLib:PrintLibInternal.obj
 0001:000011cc       ??_C@_0O@MLOLIMFM@?$DMnull?5string?$DO?$AA@ 000013ec     BasePrintLib:PrintLibInternal.obj
 0001:000011dc       ??_C@_0M@BJJDNPHK@?$DMnull?5guid?$DO?$AA@ 000013fc     BasePrintLib:PrintLibInternal.obj
 0001:000011e8       ??_C@_0DB@PMLHLBMO@?$CF08x?9?$CF04x?9?$CF04x?9?$CF02x?$CF02x?9?$CF02x?$CF02x@ 00001408     BasePrintLib:PrintLibInternal.obj
 0001:0000121c       ??_C@_0M@LHGBCIKM@?$DMnull?5time?$DO?$AA@ 0000143c     BasePrintLib:PrintLibInternal.obj
 0001:00001228       ??_C@_0BK@FCPKCIDD@?$CF02d?1?$CF02d?1?$CF04d?5?5?$CF02d?3?$CF02d?$AA@ 00001448     BasePrintLib:PrintLibInternal.obj
 0001:00001244       ??_C@_04JIMNDDED@?$CF08X?$AA@ 00001464     BasePrintLib:PrintLibInternal.obj
 0001:0000124c       ??_C@_02PCIJFNDE@?$AN?6?$AA@ 0000146c     BasePrintLib:PrintLibInternal.obj
 0001:00001250       ??_C@_01LIIJDEN@?$AN?$AA@  00001470     BasePrintLib:PrintLibInternal.obj
 0001:00001258       ??_C@_0EM@FPGGOFNC@?$CI?$CI?$CIFlags?5?$CG?50x00000040?$CJ?5?$DN?$DN?50?$CJ?$CJ?5?$HM?$HM@ 00001478     BasePrintLib:PrintLibInternal.obj
 0001:000012a8       ??_C@_0EG@NFDMKACK@?$CI?$CI?$CIFlags?5?$CG?50x00000040?$CJ?5?$CB?$DN?50?$CJ?$CJ?5?$HM?$HM@ 000014c8     BasePrintLib:PrintLibInternal.obj
 0001:000012f0       _mHexStr                   00001510     BasePrintLib:PrintLibInternal.obj
 0001:00001300       ??_C@_0BH@LKMBFCBF@Format?5?$CB?$DN?5?$CI?$CIvoid?5?$CK?$CJ?50?$CJ?$AA@ 00001520     UefiDebugLibConOut:DebugLib.obj
 0001:00001318       ??_C@_0DM@OJNICEHB@d?3?2myworkspace?2MdePkg?2Library?2Ue@ 00001538     UefiDebugLibConOut:DebugLib.obj
 0001:00001354       ??_C@_0BD@OMEPNDED@ASSERT?5?$CFa?$CI?$CFd?$CJ?3?5?$CFa?6?$AA@ 00001574     UefiDebugLibConOut:DebugLib.obj
 0001:00001368       ??_C@_0CI@MNELLLEK@?$CB?$CIBuffer?5?$DN?$DN?5?$CI?$CIvoid?5?$CK?$CJ?50?$CJ?5?$CG?$CG?5Leng@ 00001588     BaseMemoryLib:ZeroMemWrapper.obj
 0001:00001390       ??_C@_0DN@KMMKGMC@d?3?2myworkspace?2MdePkg?2Library?2Ba@ 000015b0     BaseMemoryLib:ZeroMemWrapper.obj
 0001:000013d0       ??_C@_0CL@OBMFBPED@Length?5?$DM?$DN?5?$CI0xFFFFFFFF?5?9?5?$CIUINTN?$CJB@ 000015f0     BaseMemoryLib:ZeroMemWrapper.obj
 0001:000013fc       ??_C@_0DI@PHOMHDKH@?$CILength?5?9?51?$CJ?5?$DM?$DN?5?$CI0xFFFFFFFF?5?9?5?$CIU@ 0000161c     BaseMemoryLib:CopyMemWrapper.obj
 0001:00001434       ??_C@_0DN@LOGOMHAF@d?3?2myworkspace?2MdePkg?2Library?2Ba@ 00001654     BaseMemoryLib:CopyMemWrapper.obj
 0001:00001474       ??_C@_0DD@DCDOHCDJ@?$CILength?5?9?51?$CJ?5?$DM?$DN?5?$CI0xFFFFFFFF?5?9?5?$CIU@ 00001694     BaseMemoryLib:CopyMemWrapper.obj
 0001:000014a8       ??_C@_0CN@BPIPMCPJ@?$CILength?5?9?51?$CJ?5?$DM?$DN?5?$CI0xFFFFFFFF?5?9?5?$CIU@ 000016c8     BaseMemoryLib:SetMemWrapper.obj
 0001:000014d8       ??_C@_0DM@ILEDMHBO@d?3?2myworkspace?2MdePkg?2Library?2Ba@ 000016f8     BaseMemoryLib:SetMemWrapper.obj
 0001:00001514       ??_C@_0CC@JOEHDGKB@DestinationBuffer?5?$CB?$DN?5?$CI?$CIvoid?5?$CK?$CJ?50@ 00001734     BaseMemoryLib:CompareMemWrapper.obj
 0001:00001538       ??_C@_0EA@KAHCCAHB@d?3?2myworkspace?2MdePkg?2Library?2Ba@ 00001758     BaseMemoryLib:CompareMemWrapper.obj
 0001:00001578       ??_C@_0BN@MDMCNBCC@SourceBuffer?5?$CB?$DN?5?$CI?$CIvoid?5?$CK?$CJ?50?$CJ?$AA@ 00001798     BaseMemoryLib:CompareMemWrapper.obj
 0001:00001598       ??_C@_0DC@NGPEEDEA@d?3?2myworkspace?2MdePkg?2Library?2Ba@ 000017b8     BaseLib:Unaligned.obj
 0001:000015cc       ??_C@_0N@KGHEHMDL@Divisor?5?$CB?$DN?50?$AA@ 000017ec     BaseLib:DivU64x32Remainder.obj
 0001:000015dc       ??_C@_0DL@HKFHNCLF@d?3?2myworkspace?2MdePkg?2Library?2Ba@ 000017fc     BaseLib:DivU64x32Remainder.obj
 0001:00001618       ??_C@_0CP@EAMGNBHJ@d?3?2myworkspace?2MdePkg?2Library?2Ba@ 00001838     BaseLib:String.obj
 0001:00001648       ??_C@_0BH@MAAHKCPC@String?5?$CB?$DN?5?$CI?$CIvoid?5?$CK?$CJ?50?$CJ?$AA@ 00001868     BaseLib:String.obj
 0001:00001660       ??_C@_0CD@BDCLIGHD@?$CI?$CIUINTN?$CJ?5String?5?$CG?50x00000001?$CJ?5?$DN?$DN@ 00001880     BaseLib:String.obj
 0001:00001684       ??_C@_0DK@EOJCOAME@Length?5?$DM?5_gPcd_FixedAtBuild_PcdM@ 000018a4     BaseLib:String.obj
 0001:000016c0       ??_C@_0DJ@JJHGIFMP@Length?5?$DM?$DN?5_gPcd_FixedAtBuild_Pcd@ 000018e0     BaseLib:String.obj
 0001:000016fc       ??_C@_0DI@MDIKFADO@Length?5?$DM?5_gPcd_FixedAtBuild_PcdM@ 0000191c     BaseLib:String.obj
 0001:00001734       ??_C@_0BL@IKFBNFIL@AsciiStrSize?5?$CIFirstString?$CJ?$AA@ 00001954     BaseLib:String.obj
 0001:00001750       ??_C@_0BM@EDNOKLLE@AsciiStrSize?5?$CISecondString?$CJ?$AA@ 00001970     BaseLib:String.obj
 0001:0000176c       ??_C@_0BN@COECPDCC@gImageHandle?5?$CB?$DN?5?$CI?$CIvoid?5?$CK?$CJ?50?$CJ?$AA@ 0000198c     UefiBootServicesTableLib:UefiBootServicesTableLib.obj
 0001:00001790       ??_C@_0FC@CHGHPDAC@d?3?2myworkspace?2MdePkg?2Library?2Ue@ 000019b0     UefiBootServicesTableLib:UefiBootServicesTableLib.obj
 0001:000017e4       ??_C@_0BE@DGNHAHIL@gST?5?$CB?$DN?5?$CI?$CIvoid?5?$CK?$CJ?50?$CJ?$AA@ 00001a04     UefiBootServicesTableLib:UefiBootServicesTableLib.obj
 0001:000017f8       ??_C@_0BE@BDFJLGLN@gBS?5?$CB?$DN?5?$CI?$CIvoid?5?$CK?$CJ?50?$CJ?$AA@ 00001a18     UefiBootServicesTableLib:UefiBootServicesTableLib.obj
 0001:00001810       ??_C@_0EM@MDJMIFIM@d?3?2myworkspace?2MdePkg?2Library?2Ue@ 00001a30     UefiMemoryAllocationLib:MemoryAllocationLib.obj
 0001:0000185c       ??_C@_0DE@FCAJAHCJ@AllocationSize?5?$DM?$DN?5?$CI0xFFFFFFFF?5?9?5@ 00001a7c     UefiMemoryAllocationLib:MemoryAllocationLib.obj
 0001:00001890       ??_C@_0BE@OBDFIHND@gRT?5?$CB?$DN?5?$CI?$CIvoid?5?$CK?$CJ?50?$CJ?$AA@ 00001ab0     UefiRuntimeServicesTableLib:UefiRuntimeServicesTableLib.obj
 0001:000018a8       ??_C@_0FI@JAAEOOHA@d?3?2myworkspace?2MdePkg?2Library?2Ue@ 00001ac8     UefiRuntimeServicesTableLib:UefiRuntimeServicesTableLib.obj
 0001:00001900       ??_C@_0EM@KKODNMEN@d?3?2myworkspace?2MdeModulePkg?2Libr@ 00001b20     UefiHiiServicesLib:UefiHiiServicesLib.obj
 0001:0000194c       ??_C@_0DA@BAMHPGBM@d?3?2myworkspace?2MdePkg?2Library?2Ue@ 00001b6c     UefiLib:UefiLib.obj
 0001:0000197c       ??_C@_0BF@JGGLMCFN@Lock?5?$CB?$DN?5?$CI?$CIvoid?5?$CK?$CJ?50?$CJ?$AA@ 00001b9c     UefiLib:UefiLib.obj
 0001:00001994       ??_C@_0BO@IJOPPPFL@Lock?9?$DOLock?5?$DN?$DN?5EfiLockReleased?$AA@ 00001bb4     UefiLib:UefiLib.obj
 0001:000019b4       ??_C@_0BO@FHNOFLFJ@Lock?9?$DOLock?5?$DN?$DN?5EfiLockAcquired?$AA@ 00001bd4     UefiLib:UefiLib.obj
 0001:000019d4       ??_C@_0DI@EAKGNDEJ@d?3?2myworkspace?2MdePkg?2Library?2Ue@ 00001bf4     UefiLib:UefiDriverModel.obj
 0001:00001a0c       __DriverUnloadHandler      00001c2c f   UefiDriverEntryPoint:DriverEntryPoint.obj
 0001:00001a15       __ModuleEntryPoint         00001c35 f   UefiDriverEntryPoint:DriverEntryPoint.obj
 0001:00001a78       _ProcessLibraryConstructorList 00001c98 f   SnpDxe:AutoGen.obj
 0001:00001b23       _ProcessModuleEntryPointList 00001d43 f   SnpDxe:AutoGen.obj
 0001:00001b97       _SnpNotifyExitBootServices 00001db7 f   SnpDxe:Snp.obj
 0001:00001bb1       _IssueHwUndiCommand        00001dd1 f   SnpDxe:Snp.obj
 0001:00001bd5       _SimpleNetworkDriverSupported 00001df5 f   SnpDxe:Snp.obj
 0001:00001d25       _SimpleNetworkDriverStart  00001f45 f   SnpDxe:Snp.obj
 0001:00002352       _SimpleNetworkDriverStop   00002572 f   SnpDxe:Snp.obj
 0001:00002442       _PxeReset                  00002662 f   SnpDxe:Reset.obj
 0001:000024ee       _SnpUndi32Reset            0000270e f   SnpDxe:Reset.obj
 0001:00002572       _PxeFillHeader             00002792 f   SnpDxe:Transmit.obj
 0001:000026be       _PxeTransmit               000028de f   SnpDxe:Transmit.obj
 0001:00002805       _SnpUndi32Transmit         00002a25 f   SnpDxe:Transmit.obj
 0001:000028f8       _PxeIp2Mac                 00002b18 f   SnpDxe:Mcast_ip_to_mac.obj
 0001:00002a0f       _SnpUndi32McastIpToMac     00002c2f f   SnpDxe:Mcast_ip_to_mac.obj
 0001:00002a9c       _PxeInit                   00002cbc f   SnpDxe:Initialize.obj
 0001:00002c32       _SnpUndi32Initialize       00002e52 f   SnpDxe:Initialize.obj
 0001:00002d69       _PxeStart                  00002f89 f   SnpDxe:Start.obj
 0001:00002e87       _SnpUndi32Start            000030a7 f   SnpDxe:Start.obj
 0001:00002f1c       _PxeShutdown               0000313c f   SnpDxe:Shutdown.obj
 0001:00002ff8       _SnpUndi32Shutdown         00003218 f   SnpDxe:Shutdown.obj
 0001:000030af       _PxeGetStnAddr             000032cf f   SnpDxe:Station_address.obj
 0001:000031a7       _PxeSetStnAddr             000033c7 f   SnpDxe:Station_address.obj
 0001:0000329b       _SnpUndi32StationAddress   000034bb f   SnpDxe:Station_address.obj
 0001:00003331       _PxeNvDataRead             00003551 f   SnpDxe:Nvdata.obj
 0001:0000342f       _SnpUndi32NvData           0000364f f   SnpDxe:Nvdata.obj
 0001:00003504       _SimpleNetworkComponentNameGetDriverName 00003724 f   SnpDxe:ComponentName.obj
 0001:0000352e       _UpdateName                0000374e f   SnpDxe:ComponentName.obj
 0001:0000363a       _SimpleNetworkComponentNameGetControllerName 0000385a f   SnpDxe:ComponentName.obj
 0001:000036b7       _PxeStop                   000038d7 f   SnpDxe:Stop.obj
 0001:00003766       _SnpUndi32Stop             00003986 f   SnpDxe:Stop.obj
 0001:000037d6       _SnpUndi32Statistics       000039f6 f   SnpDxe:Statistics.obj
 0001:00003a7f       _PxeRecvFilterEnable       00003c9f f   SnpDxe:Receive_filters.obj
 0001:00003bd0       _PxeRecvFilterDisable      00003df0 f   SnpDxe:Receive_filters.obj
 0001:00003cd6       _PxeRecvFilterRead         00003ef6 f   SnpDxe:Receive_filters.obj
 0001:00003e37       _SnpUndi32ReceiveFilters   00004057 f   SnpDxe:Receive_filters.obj
 0001:00003f57       _PxeReceive                00004177 f   SnpDxe:Receive.obj
 0001:000040e9       _SnpUndi32Receive          00004309 f   SnpDxe:Receive.obj
 0001:0000418e       _PxeGetStatus              000043ae f   SnpDxe:Get_status.obj
 0001:000042f8       _SnpUndi32GetStatus        00004518 f   SnpDxe:Get_status.obj
 0001:0000438c       _SnpWaitForPacketNotify    000045ac f   SnpDxe:WaitForPacket.obj
 0001:00004459       _SnpUndi32CallbackBlock    00004679 f   SnpDxe:Callback.obj
 0001:00004470       _SnpUndi32CallbackDelay    00004690 f   SnpDxe:Callback.obj
 0001:0000448b       _SnpUndi32CallbackMemio    000046ab f   SnpDxe:Callback.obj
 0001:00004556       _SnpUndi32CallbackMap      00004776 f   SnpDxe:Callback.obj
 0001:00004627       _SnpUndi32CallbackUnmap    00004847 f   SnpDxe:Callback.obj
 0001:0000469f       _SnpUndi32CallbackSync     000048bf f   SnpDxe:Callback.obj
 0001:000046d8       _UnicodeSPrint             000048f8 f   BasePrintLib:PrintLib.obj
 0001:0000472d       _UnicodeVSPrintAsciiFormat 0000494d f   BasePrintLib:PrintLib.obj
 0001:00004769       _UnicodeSPrintAsciiFormat  00004989 f   BasePrintLib:PrintLib.obj
 0001:00004782       _BasePrintLibFillBuffer    000049a2 f   BasePrintLib:PrintLibInternal.obj
 0001:000047b6       _BasePrintLibValueToString 000049d6 f   BasePrintLib:PrintLibInternal.obj
 0001:00004819       _BasePrintLibSPrintMarker  00004a39 f   BasePrintLib:PrintLibInternal.obj
 0001:000053cb       _BasePrintLibSPrint        000055eb f   BasePrintLib:PrintLibInternal.obj
 0001:000053ea       _DebugPrint                0000560a f   UefiDebugLibConOut:DebugLib.obj
 0001:0000544d       _DebugAssert               0000566d f   UefiDebugLibConOut:DebugLib.obj
 0001:00005492       _ZeroMem                   000056b2 f   BaseMemoryLib:ZeroMemWrapper.obj
 0001:000054e1       _CopyMem                   00005701 f   BaseMemoryLib:CopyMemWrapper.obj
 0001:00005559       _SetMem                    00005779 f   BaseMemoryLib:SetMemWrapper.obj
 0001:00005595       _CompareMem                000057b5 f   BaseMemoryLib:CompareMemWrapper.obj
 0001:0000562e       _LShiftU64                 0000584e f   BaseLib:LShiftU64.obj
 0001:00005653       _ReadUnaligned16           00005873 f   BaseLib:Unaligned.obj
 0001:00005672       _ReadUnaligned24           00005892 f   BaseLib:Unaligned.obj
 0001:00005695       _ReadUnaligned32           000058b5 f   BaseLib:Unaligned.obj
 0001:000056b5       _StrLen                    000058d5 f   BaseLib:String.obj
 0001:0000571d       _StrSize                   0000593d f   BaseLib:String.obj
 0001:0000572a       _AsciiStrLen               0000594a f   BaseLib:String.obj
 0001:00005775       _AsciiStrnCmp              00005995 f   BaseLib:String.obj
 0001:000057ff       _InternalAllocatePool      00005a1f f   UefiMemoryAllocationLib:MemoryAllocationLib.obj
 0001:00005823       _InternalAllocateCopyPool  00005a43 f   UefiMemoryAllocationLib:MemoryAllocationLib.obj
 0001:00005880       _FreePool                  00005aa0 f   UefiMemoryAllocationLib:MemoryAllocationLib.obj
 0001:000058b6       _UefiHiiServicesLibConstructor 00005ad6 f   UefiHiiServicesLib:UefiHiiServicesLib.obj
 0001:000059a3       _CompareIso639LanguageCode 00005bc3 f   UefiLib:UefiLib.obj
 0001:000059bd       _EfiInitializeLock         00005bdd f   UefiLib:UefiLib.obj
 0001:000059f1       _EfiAcquireLock            00005c11 f   UefiLib:UefiLib.obj
 0001:00005a40       _EfiReleaseLock            00005c60 f   UefiLib:UefiLib.obj
 0001:00005a8d       _EfiTestManagedDevice      00005cad f   UefiLib:UefiLib.obj
 0001:00005ae7       _LookupUnicodeString2      00005d07 f   UefiLib:UefiLib.obj
 0001:00005bd8       _AddUnicodeString2         00005df8 f   UefiLib:UefiLib.obj
 0001:00005d93       _NetLibDefaultUnload       00005fb3 f   DxeNetLib:DxeNetLib.obj
 0001:00005ee0       _gSimpleNetworkControllerNameTable 00006100     SnpDxe:ComponentName.obj
 0001:00005ee4       _gST                       00006104     UefiBootServicesTableLib:UefiBootServicesTableLib.obj
 0001:00005ee8       _gBS                       00006108     UefiBootServicesTableLib:UefiBootServicesTableLib.obj
 0001:00005eec       _gImageHandle              0000610c     UefiBootServicesTableLib:UefiBootServicesTableLib.obj
 0001:00005ef0       _gRT                       00006110     UefiRuntimeServicesTableLib:UefiRuntimeServicesTableLib.obj
 0001:00005ef4       _gHiiImage                 00006114     UefiHiiServicesLib:UefiHiiServicesLib.obj
 0001:00005ef8       _gHiiFont                  00006118     UefiHiiServicesLib:UefiHiiServicesLib.obj
 0001:00005efc       _gHiiString                0000611c     UefiHiiServicesLib:UefiHiiServicesLib.obj
 0001:00005f00       _gHiiDatabase              00006120     UefiHiiServicesLib:UefiHiiServicesLib.obj
 0001:00005f04       _gHiiConfigRouting         00006124     UefiHiiServicesLib:UefiHiiServicesLib.obj
 0001:00005f08       _mUefiFormBrowser2         00006128     UefiHiiLib:HiiLib.obj
 0001:00005f0c       _mPciIo                    0000612c     <common>

 entry point at        0001:00001a15

 Static symbols

