 ArpDxe

 Timestamp is 527c4160 (Fri Nov 08 09:41:52 2013)

 Preferred load address is 00000000

 Start         Length     Name                   Class
 0001:00000000 0000023cH .data                   CODE
 0001:00000240 000015abH .rdata                  CODE
 0001:000017eb 000039dbH .text                   CODE
 0001:000051c8 0000002cH .bss                    CODE

  Address         Publics by Value              Rva+Base       Lib:Object

 0001:00000000       _gEfiLoadedImageProtocolGuid 00000220     ArpDxe:AutoGen.obj
 0001:00000010       _gEfiDpcProtocolGuid       00000230     ArpDxe:AutoGen.obj
 0001:00000020       _gEfiHiiFontProtocolGuid   00000240     ArpDxe:AutoGen.obj
 0001:00000030       _gEfiHiiDatabaseProtocolGuid 00000250     ArpDxe:AutoGen.obj
 0001:00000040       _gEfiHiiConfigRoutingProtocolGuid 00000260     ArpDxe:AutoGen.obj
 0001:00000050       _gEfiComponentName2ProtocolGuid 00000270     ArpDxe:AutoGen.obj
 0001:00000060       _gEfiManagedNetworkServiceBindingProtocolGuid 00000280     ArpDxe:AutoGen.obj
 0001:00000070       _gEfiHiiImageProtocolGuid  00000290     ArpDxe:AutoGen.obj
 0001:00000080       _gEfiHiiStringProtocolGuid 000002a0     ArpDxe:AutoGen.obj
 0001:00000090       _gEfiArpServiceBindingProtocolGuid 000002b0     ArpDxe:AutoGen.obj
 0001:000000a0       _gEfiDriverBindingProtocolGuid 000002c0     ArpDxe:AutoGen.obj
 0001:000000b0       _gEfiArpProtocolGuid       000002d0     ArpDxe:AutoGen.obj
 0001:000000c0       _gEfiManagedNetworkProtocolGuid 000002e0     ArpDxe:AutoGen.obj
 0001:000000d0       _gEfiComponentNameProtocolGuid 000002f0     ArpDxe:AutoGen.obj
 0001:000000e0       _gArpDriverBinding         00000300     ArpDxe:ArpDriver.obj
 0001:000000f8       _mEfiArpProtocolTemplate   00000318     ArpDxe:ArpImpl.obj
 0001:00000114       _gArpComponentName         00000334     ArpDxe:ComponentName.obj
 0001:00000120       _mArpControllerNameTable   00000340     ArpDxe:ComponentName.obj
 0001:00000130       _mArpDriverNameTable       00000350     ArpDxe:ComponentName.obj
 0001:00000140       _gIp4AllMasks              00000360     DxeNetLib:DxeNetLib.obj
 0001:000001c8       _mStatusString             000003e8     BasePrintLib:PrintLibInternal.obj
 0001:00000240       ??_C@_0CB@DMEJJJHA@?6ASSERT_EFI_ERROR?5?$CIStatus?5?$DN?5?$CFr?$CJ?6@ 00000460     UefiDriverEntryPoint:DriverEntryPoint.obj
 0001:00000264       ??_C@_0BE@DCHLEIGN@?$CBEFI_ERROR?5?$CIStatus?$CJ?$AA@ 00000484     UefiDriverEntryPoint:DriverEntryPoint.obj
 0001:00000278       ??_C@_0EG@POHNLCG@d?3?2myworkspace?2MdePkg?2Library?2Ue@ 00000498     UefiDriverEntryPoint:DriverEntryPoint.obj
 0001:000002c0       __gUefiDriverRevision      000004e0     ArpDxe:AutoGen.obj
 0001:000002c8       ??_C@_0HH@JIBHHMKC@d?3?2myworkspace?2Build?2MdeModule?2R@ 000004e8     ArpDxe:AutoGen.obj
 0001:00000340       ??_C@_0BL@HOPCCABG@ArpService?5?$CB?$DN?5?$CI?$CIvoid?5?$CK?$CJ?50?$CJ?$AA@ 00000560     ArpDxe:ArpDriver.obj
 0001:00000360       ??_C@_0EB@NPOHAJAH@d?3?2myworkspace?2MdeModulePkg?2Univ@ 00000580     ArpDxe:ArpDriver.obj
 0001:000003a8       ??_C@_0HH@OEMAMHMF@?$CI?$CIArpService?$CJ?5?$CB?$DN?5?$CI?$CIvoid?5?$CK?$CJ?50?$CJ?$CJ?5?$CG@ 000005c8     ArpDxe:ArpDriver.obj
 0001:00000420       ??_C@_0BF@NDBIKIKC@CR?5has?5Bad?5Signature?$AA@ 00000640     ArpDxe:ArpDriver.obj
 0001:00000438       ??_C@_0CO@NKFGGBOK@ArpDriverBindingStop?3?5Open?5ArpSb@ 00000658     ArpDxe:ArpDriver.obj
 0001:00000468       ??_C@_0CP@DPCPFIAK@IsListEmpty?5?$CI?$CGArpService?9?$DOPendin@ 00000688     ArpDxe:ArpDriver.obj
 0001:00000498       ??_C@_0CM@LCOLGKJA@IsListEmpty?5?$CI?$CGArpService?9?$DODenied@ 000006b8     ArpDxe:ArpDriver.obj
 0001:000004c4       ??_C@_0CO@JKFJMLEO@IsListEmpty?5?$CI?$CGArpService?9?$DOResolv@ 000006e4     ArpDxe:ArpDriver.obj
 0001:000004f4       ??_C@_0DL@LNGPHNHN@ArpSBCreateChild?3?5Failed?5to?5allo@ 00000714     ArpDxe:ArpDriver.obj
 0001:00000530       ??_C@_0DG@BKHBKAHP@ArpSBCreateChild?3?5faild?5to?5insta@ 00000750     ArpDxe:ArpDriver.obj
 0001:00000568       ??_C@_0DO@EDBFBAPL@ArpSBDestroyChild?3?5Failed?5to?5uni@ 00000788     ArpDxe:ArpDriver.obj
 0001:000005a8       ??_C@_03LKLGDMJI@eng?$AA@  000007c8     ArpDxe:ComponentName.obj
 0001:000005ac       ??_C@_06DALJLGPG@eng?$DLen?$AA@ 000007cc     ArpDxe:ComponentName.obj
 0001:000005b4       ??_C@_1DG@MAGPPHDD@?$AAA?$AAR?$AAP?$AA?5?$AAN?$AAe?$AAt?$AAw?$AAo?$AAr?$AAk?$AA?5?$AAS?$AAe?$AAr?$AAv?$AAi?$AAc?$AAe?$AA?5?$AAD?$AAr?$AAi?$AAv?$AAe?$AAr?$AA?$AA@ 000007d4     ArpDxe:ComponentName.obj
 0001:000005ec       ??_C@_1BO@OPAEHCBJ@?$AAA?$AAR?$AAP?$AA?5?$AAC?$AAo?$AAn?$AAt?$AAr?$AAo?$AAl?$AAl?$AAe?$AAr?$AA?$AA@ 0000080c     ArpDxe:ComponentName.obj
 0001:0000060c       ??_C@_0DP@NMKEKBIK@d?3?2myworkspace?2MdeModulePkg?2Univ@ 0000082c     ArpDxe:ArpImpl.obj
 0001:00000650       ??_C@_0HD@MLDEIEGA@?$CI?$CIInstance?$CJ?5?$CB?$DN?5?$CI?$CIvoid?5?$CK?$CJ?50?$CJ?$CJ?5?$CG?$CG?5@ 00000870     ArpDxe:ArpImpl.obj
 0001:000006c4       ??_C@_0DG@ILNKFPFJ@ArpOnFrameRcvd?3?5ArpService?9?$DOMnp?9@ 000008e4     ArpDxe:ArpImpl.obj
 0001:000006fc       ??_C@_0BI@DNICFLOF@Context?5?$CB?$DN?5?$CI?$CIvoid?5?$CK?$CJ?50?$CJ?$AA@ 0000091c     ArpDxe:ArpImpl.obj
 0001:00000714       ??_C@_0CG@ONMDNHIG@ArpOnFrameSent?3?5TxToken?9?$DOStatus?0@ 00000934     ArpDxe:ArpImpl.obj
 0001:0000073c       ??_C@_0CL@COMBBMPL@IsListEmpty?5?$CI?$CGCacheEntry?9?$DOUserRe@ 0000095c     ArpDxe:ArpImpl.obj
 0001:00000768       ??_C@_0CL@KLACAMKO@?$CBIsListEmpty?$CI?$CGCacheEntry?9?$DOUserRe@ 00000988     ArpDxe:ArpImpl.obj
 0001:00000794       ??_C@_0DJ@HELGJJND@AddressOne?5?$CB?$DN?5?$CI?$CIvoid?5?$CK?$CJ?50?$CJ?5?$CG?$CG?5Ad@ 000009b4     ArpDxe:ArpImpl.obj
 0001:000007d0       ??_C@_0EH@DIJFAGEB@?$CIProtocolAddress?5?$CB?$DN?5?$CI?$CIvoid?5?$CK?$CJ?50?$CJ@ 000009f0     ArpDxe:ArpImpl.obj
 0001:00000818       ??_C@_0EA@GLPEJEOG@ArpConfigInstance?3?5AllocatePool?5@ 00000a38     ArpDxe:ArpImpl.obj
 0001:00000858       ??_C@_0DL@LJAAHLFO@?$CIInstance?5?$CB?$DN?5?$CI?$CIvoid?5?$CK?$CJ?50?$CJ?$CJ?5?$CG?$CG?5?$CIC@ 00000a78     ArpDxe:ArpImpl.obj
 0001:00000894       ??_C@_0DD@FAKEBFAE@ArpSendFrame?3?5Allocate?5memory?5fo@ 00000ab4     ArpDxe:ArpImpl.obj
 0001:000008c8       ??_C@_0DG@BIJDFACK@ArpSendFrame?3?5CreateEvent?5failed@ 00000ae8     ArpDxe:ArpImpl.obj
 0001:00000900       ??_C@_0DC@GOOFJHEK@ArpSendFrame?3?5Allocate?5memory?5fo@ 00000b20     ArpDxe:ArpImpl.obj
 0001:00000934       ??_C@_0DC@FCCOCOMJ@ArpSendFrame?3?5Allocate?5memory?5fo@ 00000b54     ArpDxe:ArpImpl.obj
 0001:00000968       ??_C@_0BH@CELONLOG@Packet?5?$CB?$DN?5?$CI?$CIvoid?5?$CK?$CJ?50?$CJ?$AA@ 00000b88     ArpDxe:ArpImpl.obj
 0001:00000980       ??_C@_0BL@MDLNNGFA@Mnp?9?$DOTransmit?5failed?0?5?$CFr?4?6?$AA@ 00000ba0     ArpDxe:ArpImpl.obj
 0001:0000099c       ??_C@_0CP@EACDFCMH@ArpFindCacheEntry?3?5Failed?5to?5all@ 00000bbc     ArpDxe:ArpImpl.obj
 0001:000009cc       ??_C@_0DP@JINAHIJK@d?3?2myworkspace?2MdeModulePkg?2Univ@ 00000bec     ArpDxe:ArpMain.obj
 0001:00000a0c       ??_C@_0DB@HHEDNJEI@ArpAdd?3?5Failed?5to?5allocate?5pool?5@ 00000c2c     ArpDxe:ArpMain.obj
 0001:00000a40       ??_C@_0DI@DMMJLIIM@ArpRequest?3?5Allocate?5memory?5for?5@ 00000c60     ArpDxe:ArpMain.obj
 0001:00000a78       ??_C@_0DE@KDEKIHAM@ArpRequest?3?5Allocate?5memory?5for?5@ 00000c98     ArpDxe:ArpMain.obj
 0001:00000aac       ??_C@_0CC@JOEHDGKB@DestinationBuffer?5?$CB?$DN?5?$CI?$CIvoid?5?$CK?$CJ?50@ 00000ccc     BaseMemoryLib:CompareMemWrapper.obj
 0001:00000ad0       ??_C@_0EA@KAHCCAHB@d?3?2myworkspace?2MdePkg?2Library?2Ba@ 00000cf0     BaseMemoryLib:CompareMemWrapper.obj
 0001:00000b10       ??_C@_0BN@MDMCNBCC@SourceBuffer?5?$CB?$DN?5?$CI?$CIvoid?5?$CK?$CJ?50?$CJ?$AA@ 00000d30     BaseMemoryLib:CompareMemWrapper.obj
 0001:00000b30       ??_C@_0DI@PHOMHDKH@?$CILength?5?9?51?$CJ?5?$DM?$DN?5?$CI0xFFFFFFFF?5?9?5?$CIU@ 00000d50     BaseMemoryLib:CompareMemWrapper.obj
 0001:00000b68       ??_C@_0DD@DCDOHCDJ@?$CILength?5?9?51?$CJ?5?$DM?$DN?5?$CI0xFFFFFFFF?5?9?5?$CIU@ 00000d88     BaseMemoryLib:CompareMemWrapper.obj
 0001:00000b9c       ??_C@_0DN@LOGOMHAF@d?3?2myworkspace?2MdePkg?2Library?2Ba@ 00000dbc     BaseMemoryLib:CopyMemWrapper.obj
 0001:00000bdc       ??_C@_0CI@MNELLLEK@?$CB?$CIBuffer?5?$DN?$DN?5?$CI?$CIvoid?5?$CK?$CJ?50?$CJ?5?$CG?$CG?5Leng@ 00000dfc     BaseMemoryLib:ZeroMemWrapper.obj
 0001:00000c04       ??_C@_0DN@KMMKGMC@d?3?2myworkspace?2MdePkg?2Library?2Ba@ 00000e24     BaseMemoryLib:ZeroMemWrapper.obj
 0001:00000c44       ??_C@_0CL@OBMFBPED@Length?5?$DM?$DN?5?$CI0xFFFFFFFF?5?9?5?$CIUINTN?$CJB@ 00000e64     BaseMemoryLib:ZeroMemWrapper.obj
 0001:00000c70       ??_C@_0BF@NJNGJMPC@List?5?$CB?$DN?5?$CI?$CIvoid?5?$CK?$CJ?50?$CJ?$AA@ 00000e90     BaseLib:LinkedList.obj
 0001:00000c88       ??_C@_0DD@EHJNIBEL@d?3?2myworkspace?2MdePkg?2Library?2Ba@ 00000ea8     BaseLib:LinkedList.obj
 0001:00000cbc       ??_C@_0CC@KDLPLAED@List?9?$DOForwardLink?5?$CB?$DN?5?$CI?$CIvoid?5?$CK?$CJ?50@ 00000edc     BaseLib:LinkedList.obj
 0001:00000ce0       ??_C@_0BP@IJJCCMAK@List?9?$DOBackLink?5?$CB?$DN?5?$CI?$CIvoid?5?$CK?$CJ?50?$CJ?$AA@ 00000f00     BaseLib:LinkedList.obj
 0001:00000d00       ??_C@_0BF@CBLMFKOC@Node?5?$CB?$DN?5?$CI?$CIvoid?5?$CK?$CJ?50?$CJ?$AA@ 00000f20     BaseLib:LinkedList.obj
 0001:00000d18       ??_C@_0DG@IMEFJFAE@Count?5?$DM?5_gPcd_FixedAtBuild_PcdMa@ 00000f38     BaseLib:LinkedList.obj
 0001:00000d50       ??_C@_0BJ@NJABNCDK@ListHead?5?$CB?$DN?5?$CI?$CIvoid?5?$CK?$CJ?50?$CJ?$AA@ 00000f70     BaseLib:LinkedList.obj
 0001:00000d70       ??_C@_0EB@JGCKPMLP@InternalBaseLibIsNodeInList?5?$CILis@ 00000f90     BaseLib:LinkedList.obj
 0001:00000db4       ??_C@_0DM@PHLIJEML@InternalBaseLibIsNodeInList?5?$CILis@ 00000fd4     BaseLib:LinkedList.obj
 0001:00000df0       ??_C@_0DM@NCFNNADL@InternalBaseLibIsNodeInList?5?$CILis@ 00001010     BaseLib:LinkedList.obj
 0001:00000e30       ??_C@_0EE@BFCMBGFO@InternalBaseLibIsNodeInList?5?$CILis@ 00001050     BaseLib:LinkedList.obj
 0001:00000e74       ??_C@_0BF@NMBJJECB@?$CBIsListEmpty?5?$CIEntry?$CJ?$AA@ 00001094     BaseLib:LinkedList.obj
 0001:00000e8c       ??_C@_0BH@LKMBFCBF@Format?5?$CB?$DN?5?$CI?$CIvoid?5?$CK?$CJ?50?$CJ?$AA@ 000010ac     UefiDebugLibConOut:DebugLib.obj
 0001:00000ea4       ??_C@_0DM@OJNICEHB@d?3?2myworkspace?2MdePkg?2Library?2Ue@ 000010c4     UefiDebugLibConOut:DebugLib.obj
 0001:00000ee0       ??_C@_0BD@OMEPNDED@ASSERT?5?$CFa?$CI?$CFd?$CJ?3?5?$CFa?6?$AA@ 00001100     UefiDebugLibConOut:DebugLib.obj
 0001:00000ef4       ??_C@_0BH@IACGKAP@Buffer?5?$CB?$DN?5?$CI?$CIvoid?5?$CK?$CJ?50?$CJ?$AA@ 00001114     UefiDebugLibConOut:DebugLib.obj
 0001:00000f0c       ??_C@_0BN@COECPDCC@gImageHandle?5?$CB?$DN?5?$CI?$CIvoid?5?$CK?$CJ?50?$CJ?$AA@ 0000112c     UefiBootServicesTableLib:UefiBootServicesTableLib.obj
 0001:00000f30       ??_C@_0FC@CHGHPDAC@d?3?2myworkspace?2MdePkg?2Library?2Ue@ 00001150     UefiBootServicesTableLib:UefiBootServicesTableLib.obj
 0001:00000f84       ??_C@_0BE@DGNHAHIL@gST?5?$CB?$DN?5?$CI?$CIvoid?5?$CK?$CJ?50?$CJ?$AA@ 000011a4     UefiBootServicesTableLib:UefiBootServicesTableLib.obj
 0001:00000f98       ??_C@_0BE@BDFJLGLN@gBS?5?$CB?$DN?5?$CI?$CIvoid?5?$CK?$CJ?50?$CJ?$AA@ 000011b8     UefiBootServicesTableLib:UefiBootServicesTableLib.obj
 0001:00000fb0       ??_C@_0EM@MDJMIFIM@d?3?2myworkspace?2MdePkg?2Library?2Ue@ 000011d0     UefiMemoryAllocationLib:MemoryAllocationLib.obj
 0001:00000ffc       ??_C@_0BE@OBDFIHND@gRT?5?$CB?$DN?5?$CI?$CIvoid?5?$CK?$CJ?50?$CJ?$AA@ 0000121c     UefiRuntimeServicesTableLib:UefiRuntimeServicesTableLib.obj
 0001:00001010       ??_C@_0FI@JAAEOOHA@d?3?2myworkspace?2MdePkg?2Library?2Ue@ 00001230     UefiRuntimeServicesTableLib:UefiRuntimeServicesTableLib.obj
 0001:00001068       ??_C@_0EM@KKODNMEN@d?3?2myworkspace?2MdeModulePkg?2Libr@ 00001288     UefiHiiServicesLib:UefiHiiServicesLib.obj
 0001:000010b4       ??_C@_0DI@EAKGNDEJ@d?3?2myworkspace?2MdePkg?2Library?2Ue@ 000012d4     UefiLib:UefiDriverModel.obj
 0001:000010ec       ??_C@_0DK@KLPAOFNC@d?3?2myworkspace?2MdeModulePkg?2Libr@ 0000130c     DxeNetLib:DxeNetLib.obj
 0001:00001128       ??_C@_0BF@FBEMMEEB@Head?5?$CB?$DN?5?$CI?$CIvoid?5?$CK?$CJ?50?$CJ?$AA@ 00001348     DxeNetLib:DxeNetLib.obj
 0001:00001140       ??_C@_0BE@GMKCNDGH@Map?5?$CB?$DN?5?$CI?$CIvoid?5?$CK?$CJ?50?$CJ?$AA@ 00001360     DxeNetLib:DxeNetLib.obj
 0001:00001154       ??_C@_0CO@MHIOADDG@?$CIMap?9?$DOCount?5?$DN?$DN?50?$CJ?5?$CG?$CG?5IsListEmpty@ 00001374     DxeNetLib:DxeNetLib.obj
 0001:00001184       ??_C@_0BN@JFJNMPHO@IsListEmpty?5?$CI?$CGMap?9?$DORecycled?$CJ?$AA@ 000013a4     DxeNetLib:DxeNetLib.obj
 0001:000011a4       ??_C@_0CB@DNKJKBEA@Map?5?$CG?$CG?5?$CBIsListEmpty?5?$CI?$CGMap?9?$DOUsed?$CJ@ 000013c4     DxeNetLib:DxeNetLib.obj
 0001:000011c8       ??_C@_0EG@FMMHPKDI@?$CIServiceBindingGuid?5?$CB?$DN?5?$CI?$CIvoid?5?$CK?$CJ@ 000013e8     DxeNetLib:DxeNetLib.obj
 0001:00001210       ??_C@_0DH@KGFJCKEI@d?3?2myworkspace?2MdeModulePkg?2Libr@ 00001430     DxeDpcLib:DpcLib.obj
 0001:00001248       ??_C@_0CI@BGLNHBLM@?$CI?$CI?$CIUINTN?$CJ?5?$CIStartOfBuffer?$CJ?$CJ?5?$CG?50x0@ 00001468     BasePrintLib:PrintLib.obj
 0001:00001270       ??_C@_0DG@PDLDNIEO@d?3?2myworkspace?2MdePkg?2Library?2Ba@ 00001490     BasePrintLib:PrintLib.obj
 0001:000012a8       ??_C@_07PBILKAFL@Success?$AA@ 000014c8     BasePrintLib:PrintLibInternal.obj
 0001:000012b0       ??_C@_0BG@CFJMNNJK@Warning?5Unknown?5Glyph?$AA@ 000014d0     BasePrintLib:PrintLibInternal.obj
 0001:000012c8       ??_C@_0BH@GKKCJEPJ@Warning?5Delete?5Failure?$AA@ 000014e8     BasePrintLib:PrintLibInternal.obj
 0001:000012e0       ??_C@_0BG@ECIJMOED@Warning?5Write?5Failure?$AA@ 00001500     BasePrintLib:PrintLibInternal.obj
 0001:000012f8       ??_C@_0BJ@ODIPDGHB@Warning?5Buffer?5Too?5Small?$AA@ 00001518     BasePrintLib:PrintLibInternal.obj
 0001:00001314       ??_C@_0L@PLPBEPPC@Load?5Error?$AA@ 00001534     BasePrintLib:PrintLibInternal.obj
 0001:00001320       ??_C@_0BC@HOFHKGJN@Invalid?5Parameter?$AA@ 00001540     BasePrintLib:PrintLibInternal.obj
 0001:00001334       ??_C@_0M@BEECMOIL@Unsupported?$AA@ 00001554     BasePrintLib:PrintLibInternal.obj
 0001:00001340       ??_C@_0BA@FLNMPMCF@Bad?5Buffer?5Size?$AA@ 00001560     BasePrintLib:PrintLibInternal.obj
 0001:00001350       ??_C@_0BB@EGELJFOB@Buffer?5Too?5Small?$AA@ 00001570     BasePrintLib:PrintLibInternal.obj
 0001:00001364       ??_C@_09NKFGCIPN@Not?5Ready?$AA@ 00001584     BasePrintLib:PrintLibInternal.obj
 0001:00001370       ??_C@_0N@HHEABDHO@Device?5Error?$AA@ 00001590     BasePrintLib:PrintLibInternal.obj
 0001:00001380       ??_C@_0BA@LNEDDFNB@Write?5Protected?$AA@ 000015a0     BasePrintLib:PrintLibInternal.obj
 0001:00001390       ??_C@_0BB@GOILNEAA@Out?5of?5Resources?$AA@ 000015b0     BasePrintLib:PrintLibInternal.obj
 0001:000013a4       ??_C@_0P@EIOJGIF@Volume?5Corrupt?$AA@ 000015c4     BasePrintLib:PrintLibInternal.obj
 0001:000013b4       ??_C@_0M@HDLEPOFA@Volume?5Full?$AA@ 000015d4     BasePrintLib:PrintLibInternal.obj
 0001:000013c0       ??_C@_08KEGAJDNN@No?5Media?$AA@ 000015e0     BasePrintLib:PrintLibInternal.obj
 0001:000013cc       ??_C@_0O@JNCJKCCD@Media?5changed?$AA@ 000015ec     BasePrintLib:PrintLibInternal.obj
 0001:000013dc       ??_C@_09CFCBFJND@Not?5Found?$AA@ 000015fc     BasePrintLib:PrintLibInternal.obj
 0001:000013e8       ??_C@_0O@NFHOBIDO@Access?5Denied?$AA@ 00001608     BasePrintLib:PrintLibInternal.obj
 0001:000013f8       ??_C@_0M@ENKCBFEP@No?5Response?$AA@ 00001618     BasePrintLib:PrintLibInternal.obj
 0001:00001404       ??_C@_0L@IFPBNFC@No?5mapping?$AA@ 00001624     BasePrintLib:PrintLibInternal.obj
 0001:00001410       ??_C@_08PAFJCNGP@Time?5out?$AA@ 00001630     BasePrintLib:PrintLibInternal.obj
 0001:0000141c       ??_C@_0M@DCJFAFHJ@Not?5started?$AA@ 0000163c     BasePrintLib:PrintLibInternal.obj
 0001:00001428       ??_C@_0BA@IGIBFFPH@Already?5started?$AA@ 00001648     BasePrintLib:PrintLibInternal.obj
 0001:00001438       ??_C@_07LCKDCBKK@Aborted?$AA@ 00001658     BasePrintLib:PrintLibInternal.obj
 0001:00001440       ??_C@_0L@LKIFCMNO@ICMP?5Error?$AA@ 00001660     BasePrintLib:PrintLibInternal.obj
 0001:0000144c       ??_C@_0L@DJKNJKHM@TFTP?5Error?$AA@ 0000166c     BasePrintLib:PrintLibInternal.obj
 0001:00001458       ??_C@_0P@NCJHBCLM@Protocol?5Error?$AA@ 00001678     BasePrintLib:PrintLibInternal.obj
 0001:00001468       ??_C@_0DO@GOAMAIEG@d?3?2myworkspace?2MdePkg?2Library?2Ba@ 00001688     BasePrintLib:PrintLibInternal.obj
 0001:000014a8       ??_C@_0CB@NIHAJGJE@StrSize?5?$CI?$CICHAR16?5?$CK?$CJ?5Format?$CJ?5?$CB?$DN?50@ 000016c8     BasePrintLib:PrintLibInternal.obj
 0001:000014cc       ??_C@_0BL@BFEFANFD@AsciiStrSize?5?$CIFormat?$CJ?5?$CB?$DN?50?$AA@ 000016ec     BasePrintLib:PrintLibInternal.obj
 0001:000014e8       ??_C@_0O@MLOLIMFM@?$DMnull?5string?$DO?$AA@ 00001708     BasePrintLib:PrintLibInternal.obj
 0001:000014f8       ??_C@_0M@BJJDNPHK@?$DMnull?5guid?$DO?$AA@ 00001718     BasePrintLib:PrintLibInternal.obj
 0001:00001504       ??_C@_0DB@PMLHLBMO@?$CF08x?9?$CF04x?9?$CF04x?9?$CF02x?$CF02x?9?$CF02x?$CF02x@ 00001724     BasePrintLib:PrintLibInternal.obj
 0001:00001538       ??_C@_0M@LHGBCIKM@?$DMnull?5time?$DO?$AA@ 00001758     BasePrintLib:PrintLibInternal.obj
 0001:00001544       ??_C@_0BK@FCPKCIDD@?$CF02d?1?$CF02d?1?$CF04d?5?5?$CF02d?3?$CF02d?$AA@ 00001764     BasePrintLib:PrintLibInternal.obj
 0001:00001560       ??_C@_04JIMNDDED@?$CF08X?$AA@ 00001780     BasePrintLib:PrintLibInternal.obj
 0001:00001568       ??_C@_02PCIJFNDE@?$AN?6?$AA@ 00001788     BasePrintLib:PrintLibInternal.obj
 0001:0000156c       ??_C@_01LIIJDEN@?$AN?$AA@  0000178c     BasePrintLib:PrintLibInternal.obj
 0001:00001570       ??_C@_0EM@FPGGOFNC@?$CI?$CI?$CIFlags?5?$CG?50x00000040?$CJ?5?$DN?$DN?50?$CJ?$CJ?5?$HM?$HM@ 00001790     BasePrintLib:PrintLibInternal.obj
 0001:000015c0       ??_C@_0EG@NFDMKACK@?$CI?$CI?$CIFlags?5?$CG?50x00000040?$CJ?5?$CB?$DN?50?$CJ?$CJ?5?$HM?$HM@ 000017e0     BasePrintLib:PrintLibInternal.obj
 0001:00001608       _mHexStr                   00001828     BasePrintLib:PrintLibInternal.obj
 0001:00001618       ??_C@_0CP@EAMGNBHJ@d?3?2myworkspace?2MdePkg?2Library?2Ba@ 00001838     BaseLib:String.obj
 0001:00001648       ??_C@_0BH@MAAHKCPC@String?5?$CB?$DN?5?$CI?$CIvoid?5?$CK?$CJ?50?$CJ?$AA@ 00001868     BaseLib:String.obj
 0001:00001660       ??_C@_0CD@BDCLIGHD@?$CI?$CIUINTN?$CJ?5String?5?$CG?50x00000001?$CJ?5?$DN?$DN@ 00001880     BaseLib:String.obj
 0001:00001684       ??_C@_0DK@EOJCOAME@Length?5?$DM?5_gPcd_FixedAtBuild_PcdM@ 000018a4     BaseLib:String.obj
 0001:000016c0       ??_C@_0DJ@JJHGIFMP@Length?5?$DM?$DN?5_gPcd_FixedAtBuild_Pcd@ 000018e0     BaseLib:String.obj
 0001:000016fc       ??_C@_0DI@MDIKFADO@Length?5?$DM?5_gPcd_FixedAtBuild_PcdM@ 0000191c     BaseLib:String.obj
 0001:00001734       ??_C@_0BL@IKFBNFIL@AsciiStrSize?5?$CIFirstString?$CJ?$AA@ 00001954     BaseLib:String.obj
 0001:00001750       ??_C@_0BM@EDNOKLLE@AsciiStrSize?5?$CISecondString?$CJ?$AA@ 00001970     BaseLib:String.obj
 0001:0000176c       ??_C@_0DC@NGPEEDEA@d?3?2myworkspace?2MdePkg?2Library?2Ba@ 0000198c     BaseLib:Unaligned.obj
 0001:000017a0       ??_C@_0N@KGHEHMDL@Divisor?5?$CB?$DN?50?$AA@ 000019c0     BaseLib:DivU64x32Remainder.obj
 0001:000017b0       ??_C@_0DL@HKFHNCLF@d?3?2myworkspace?2MdePkg?2Library?2Ba@ 000019d0     BaseLib:DivU64x32Remainder.obj
 0001:000017eb       __DriverUnloadHandler      00001a0b f   UefiDriverEntryPoint:DriverEntryPoint.obj
 0001:000017f4       __ModuleEntryPoint         00001a14 f   UefiDriverEntryPoint:DriverEntryPoint.obj
 0001:00001857       _ProcessLibraryConstructorList 00001a77 f   ArpDxe:AutoGen.obj
 0001:0000193e       _ProcessModuleEntryPointList 00001b5e f   ArpDxe:AutoGen.obj
 0001:000019b2       _ArpCreateService          00001bd2 f   ArpDxe:ArpDriver.obj
 0001:00001b4a       _ArpCleanService           00001d6a f   ArpDxe:ArpDriver.obj
 0001:00001c22       _ArpDestroyChildEntryInHandleBuffer 00001e42 f   ArpDxe:ArpDriver.obj
 0001:00001c6a       _ArpDriverBindingSupported 00001e8a f   ArpDxe:ArpDriver.obj
 0001:00001cbf       _ArpDriverBindingStart     00001edf f   ArpDxe:ArpDriver.obj
 0001:00001d40       _ArpDriverBindingStop      00001f60 f   ArpDxe:ArpDriver.obj
 0001:00001ed5       _ArpServiceBindingCreateChild 000020f5 f   ArpDxe:ArpDriver.obj
 0001:00002031       _ArpServiceBindingDestroyChild 00002251 f   ArpDxe:ArpDriver.obj
 0001:00002180       _ArpComponentNameGetDriverName 000023a0 f   ArpDxe:ComponentName.obj
 0001:000021aa       _ArpComponentNameGetControllerName 000023ca f   ArpDxe:ComponentName.obj
 0001:00002218       _ArpInitInstance           00002438 f   ArpDxe:ArpImpl.obj
 0001:00002269       _ArpOnFrameRcvdDpc         00002489 f   ArpDxe:ArpImpl.obj
 0001:00002504       _ArpOnFrameRcvd            00002724 f   ArpDxe:ArpImpl.obj
 0001:0000251b       _ArpOnFrameSentDpc         0000273b f   ArpDxe:ArpImpl.obj
 0001:0000257b       _ArpOnFrameSent            0000279b f   ArpDxe:ArpImpl.obj
 0001:00002592       _ArpTimerHandler           000027b2 f   ArpDxe:ArpImpl.obj
 0001:0000272a       _ArpMatchAddress           0000294a f   ArpDxe:ArpImpl.obj
 0001:00002780       _ArpFindNextCacheEntryInTable 000029a0 f   ArpDxe:ArpImpl.obj
 0001:000027d4       _ArpFindDeniedCacheEntry   000029f4 f   ArpDxe:ArpImpl.obj
 0001:00002864       _ArpAllocCacheEntry        00002a84 f   ArpDxe:ArpImpl.obj
 0001:000028dc       _ArpAddressResolved        00002afc f   ArpDxe:ArpImpl.obj
 0001:00002962       _ArpFillAddressInCacheEntry 00002b82 f   ArpDxe:ArpImpl.obj
 0001:000029bd       _ArpConfigureInstance      00002bdd f   ArpDxe:ArpImpl.obj
 0001:00002af3       _ArpSendFrame              00002d13 f   ArpDxe:ArpImpl.obj
 0001:00002d76       _ArpDeleteCacheEntryInTable 00002f96 f   ArpDxe:ArpImpl.obj
 0001:00002e2b       _ArpDeleteCacheEntry       0000304b f   ArpDxe:ArpImpl.obj
 0001:00002e9c       _ArpCancelRequest          000030bc f   ArpDxe:ArpImpl.obj
 0001:00002f44       _ArpFindCacheEntry         00003164 f   ArpDxe:ArpImpl.obj
 0001:000031b5       _ArpConfigure              000033d5 f   ArpDxe:ArpMain.obj
 0001:00003236       _ArpAdd                    00003456 f   ArpDxe:ArpMain.obj
 0001:000033f6       _ArpFind                   00003616 f   ArpDxe:ArpMain.obj
 0001:0000349e       _ArpDelete                 000036be f   ArpDxe:ArpMain.obj
 0001:0000351a       _ArpFlush                  0000373a f   ArpDxe:ArpMain.obj
 0001:00003592       _ArpRequest                000037b2 f   ArpDxe:ArpMain.obj
 0001:00003835       _ArpCancel                 00003a55 f   ArpDxe:ArpMain.obj
 0001:000038cb       _CompareMem                00003aeb f   BaseMemoryLib:CompareMemWrapper.obj
 0001:00003969       _CopyMem                   00003b89 f   BaseMemoryLib:CopyMemWrapper.obj
 0001:000039e1       _ZeroMem                   00003c01 f   BaseMemoryLib:ZeroMemWrapper.obj
 0001:00003a30       _InternalBaseLibIsNodeInList 00003c50 f   BaseLib:LinkedList.obj
 0001:00003abd       _InitializeListHead        00003cdd f   BaseLib:LinkedList.obj
 0001:00003ae2       _InsertHeadList            00003d02 f   BaseLib:LinkedList.obj
 0001:00003b1b       _InsertTailList            00003d3b f   BaseLib:LinkedList.obj
 0001:00003b55       _GetFirstNode              00003d75 f   BaseLib:LinkedList.obj
 0001:00003b7e       _IsListEmpty               00003d9e f   BaseLib:LinkedList.obj
 0001:00003baa       _IsNull                    00003dca f   BaseLib:LinkedList.obj
 0001:00003bd8       _RemoveEntryList           00003df8 f   BaseLib:LinkedList.obj
 0001:00003c0c       _DebugPrint                00003e2c f   UefiDebugLibConOut:DebugLib.obj
 0001:00003c6f       _DebugAssert               00003e8f f   UefiDebugLibConOut:DebugLib.obj
 0001:00003cb4       _InternalAllocatePool      00003ed4 f   UefiMemoryAllocationLib:MemoryAllocationLib.obj
 0001:00003cd8       _InternalAllocateZeroPool  00003ef8 f   UefiMemoryAllocationLib:MemoryAllocationLib.obj
 0001:00003cf0       _FreePool                  00003f10 f   UefiMemoryAllocationLib:MemoryAllocationLib.obj
 0001:00003d29       _UefiHiiServicesLibConstructor 00003f49 f   UefiHiiServicesLib:UefiHiiServicesLib.obj
 0001:00003e16       _CompareIso639LanguageCode 00004036 f   UefiLib:UefiLib.obj
 0001:00003e30       _EfiTestChildHandle        00004050 f   UefiLib:UefiLib.obj
 0001:00003e96       _LookupUnicodeString2      000040b6 f   UefiLib:UefiLib.obj
 0001:00003f87       _NetIp4IsUnicast           000041a7 f   DxeNetLib:DxeNetLib.obj
 0001:00003fe9       _NetListRemoveHead         00004209 f   DxeNetLib:DxeNetLib.obj
 0001:00004028       _NetDestroyLinkList        00004248 f   DxeNetLib:DxeNetLib.obj
 0001:000040c0       _NetMapClean               000042e0 f   DxeNetLib:DxeNetLib.obj
 0001:0000416c       _NetMapAllocItem           0000438c f   DxeNetLib:DxeNetLib.obj
 0001:000041cc       _NetMapInsertTail          000043ec f   DxeNetLib:DxeNetLib.obj
 0001:00004218       _NetLibDefaultUnload       00004438 f   DxeNetLib:DxeNetLib.obj
 0001:0000435d       _UnicodeVSPrintAsciiFormat 0000457d f   BasePrintLib:PrintLib.obj
 0001:00004399       _UnicodeSPrintAsciiFormat  000045b9 f   BasePrintLib:PrintLib.obj
 0001:000043b2       _BasePrintLibFillBuffer    000045d2 f   BasePrintLib:PrintLibInternal.obj
 0001:000043e6       _BasePrintLibValueToString 00004606 f   BasePrintLib:PrintLibInternal.obj
 0001:00004449       _BasePrintLibSPrintMarker  00004669 f   BasePrintLib:PrintLibInternal.obj
 0001:00004ffb       _BasePrintLibSPrint        0000521b f   BasePrintLib:PrintLibInternal.obj
 0001:0000501a       _StrLen                    0000523a f   BaseLib:String.obj
 0001:00005082       _StrSize                   000052a2 f   BaseLib:String.obj
 0001:0000508f       _AsciiStrLen               000052af f   BaseLib:String.obj
 0001:000050da       _AsciiStrnCmp              000052fa f   BaseLib:String.obj
 0001:00005164       _ReadUnaligned16           00005384 f   BaseLib:Unaligned.obj
 0001:00005183       _ReadUnaligned24           000053a3 f   BaseLib:Unaligned.obj
 0001:000051a6       _ReadUnaligned32           000053c6 f   BaseLib:Unaligned.obj
 0001:000051c8       _gST                       000053e8     UefiBootServicesTableLib:UefiBootServicesTableLib.obj
 0001:000051cc       _gBS                       000053ec     UefiBootServicesTableLib:UefiBootServicesTableLib.obj
 0001:000051d0       _gImageHandle              000053f0     UefiBootServicesTableLib:UefiBootServicesTableLib.obj
 0001:000051d4       _gRT                       000053f4     UefiRuntimeServicesTableLib:UefiRuntimeServicesTableLib.obj
 0001:000051d8       _gHiiImage                 000053f8     UefiHiiServicesLib:UefiHiiServicesLib.obj
 0001:000051dc       _gHiiFont                  000053fc     UefiHiiServicesLib:UefiHiiServicesLib.obj
 0001:000051e0       _gHiiString                00005400     UefiHiiServicesLib:UefiHiiServicesLib.obj
 0001:000051e4       _gHiiDatabase              00005404     UefiHiiServicesLib:UefiHiiServicesLib.obj
 0001:000051e8       _gHiiConfigRouting         00005408     UefiHiiServicesLib:UefiHiiServicesLib.obj
 0001:000051ec       _mUefiFormBrowser2         0000540c     UefiHiiLib:HiiLib.obj
 0001:000051f0       _mDpc                      00005410     <common>

 entry point at        0001:000017f4

 Static symbols

