 ReportStatusCodeRouterPei

 Timestamp is 52778ad9 (Mon Nov 04 19:54:01 2013)

 Preferred load address is 00000000

 Start         Length     Name                   Class
 0001:00000000 000019d7H .text                   CODE
 0002:00000000 00000b1bH .rdata                  DATA
 0002:00000b1c 000000ccH .rdata$debug            DATA
 0003:00000000 0000010cH .data                   DATA
 0003:0000010c 00000010H .bss                    DATA
 0004:00000000 00000061H .edata                  DATA

  Address         Publics by Value              Rva+Base       Lib:Object

 0001:00000000       __ModuleEntryPoint         00001000 f   PeimEntryPoint:PeimEntryPoint.obj
 0001:0000000e       _CreateRscHandlerCallbackPacket 0000100e f   ReportStatusCodeRouterPei:ReportStatusCodeRouterPei.obj
 0001:00000034       _Register                  00001034 f   ReportStatusCodeRouterPei:ReportStatusCodeRouterPei.obj
 0001:000000bd       _Unregister                000010bd f   ReportStatusCodeRouterPei:ReportStatusCodeRouterPei.obj
 0001:00000108       _ReportDispatcher          00001108 f   ReportStatusCodeRouterPei:ReportStatusCodeRouterPei.obj
 0001:00000162       _GenericStatusCodePeiEntry 00001162 f   ReportStatusCodeRouterPei:ReportStatusCodeRouterPei.obj
 0001:00000224       _DebugPrint                00001224 f   PeiDxeDebugLibReportStatusCode:DebugLib.obj
 0001:0000038e       _DebugAssert               0000138e f   PeiDxeDebugLibReportStatusCode:DebugLib.obj
 0001:0000042d       _GetPeiServicesTablePointer 0000142d f   PeiServicesTablePointerLib:PeiServicesTablePointer.obj
 0001:0000044f       _GetHobList                0000144f f   PeiHobLib:HobLib.obj
 0001:000004ad       _GetNextHob                000014ad f   PeiHobLib:HobLib.obj
 0001:000004ea       _GetNextGuidHob            000014ea f   PeiHobLib:HobLib.obj
 0001:0000051d       _InternalPeiCreateHob      0000151d f   PeiHobLib:HobLib.obj
 0001:00000567       _BuildGuidHob              00001567 f   PeiHobLib:HobLib.obj
 0001:00000587       _InternalReportStatusCode  00001587 f   PeiReportStatusCodeLib:ReportStatusCodeLib.obj
 0001:000005f1       _ReportStatusCodeExtractAssertInfo 000015f1 f   PeiReportStatusCodeLib:ReportStatusCodeLib.obj
 0001:000006b5       _ReportStatusCodeExtractDebugInfo 000016b5 f   PeiReportStatusCodeLib:ReportStatusCodeLib.obj
 0001:0000074f       _ReportStatusCodeEx        0000174f f   PeiReportStatusCodeLib:ReportStatusCodeLib.obj
 0001:0000080c       _StrLen                    0000180c f   BaseLib:String.obj
 0001:00000874       _StrSize                   00001874 f   BaseLib:String.obj
 0001:00000881       _AsciiStrCpy               00001881 f   BaseLib:String.obj
 0001:000008fb       _AsciiStrLen               000018fb f   BaseLib:String.obj
 0001:00000946       _CopyMem                   00001946 f   BaseMemoryLibOptPei:CopyMemWrapper.obj
 0001:000009ab       _CopyGuid                  000019ab f   BaseMemoryLibOptPei:MemLibGuid.obj
 0001:000009db       _CompareGuid               000019db f   BaseMemoryLibOptPei:MemLibGuid.obj
 0001:00000a3a       _OemHookStatusCodeInitialize 00001a3a f   PeiNt32OemHookStatusCodeLib:Nt32OemHookStatusCodeLib.obj
 0001:00000a9d       _OemHookStatusCodeReport   00001a9d f   PeiNt32OemHookStatusCodeLib:Nt32OemHookStatusCodeLib.obj
 0001:00000c4b       _ReadUnaligned16           00001c4b f   BaseLib:Unaligned.obj
 0001:00000c6a       _ReadUnaligned64           00001c6a f   BaseLib:Unaligned.obj
 0001:00000c8d       _WriteUnaligned64          00001c8d f   BaseLib:Unaligned.obj
 0001:00000cb8       _AsciiSPrint               00001cb8 f   BasePrintLib:PrintLib.obj
 0001:00000cd6       _BasePrintLibFillBuffer    00001cd6 f   BasePrintLib:PrintLibInternal.obj
 0001:00000d0a       _BasePrintLibValueToString 00001d0a f   BasePrintLib:PrintLibInternal.obj
 0001:00000d6d       _BasePrintLibSPrintMarker  00001d6d f   BasePrintLib:PrintLibInternal.obj
 0001:000018fb       _BasePrintLibSPrint        000028fb f   BasePrintLib:PrintLibInternal.obj
 0001:0000191c       _InternalMemCopyMem        0000291c f   BaseMemoryLibOptPei:CopyMem.obj
 0001:00001954       _InternalMemSetMem         00002954 f   BaseMemoryLibOptPei:SetMem.obj
 0001:00001980       _InternalMemZeroMem        00002980 f   BaseMemoryLibOptPei:ZeroMem.obj
 0001:000019a0       _InternalMemSetMem32       000029a0 f   BaseMemoryLibOptPei:SetMem32.obj
 0001:000019b8       _InternalMemSetMem64       000029b8 f   BaseMemoryLibOptPei:SetMem64.obj
 0002:00000038       ??_C@_0CB@DMEJJJHA@?6ASSERT_EFI_ERROR?5?$CIStatus?5?$DN?5?$CFr?$CJ?6@ 00003038     ReportStatusCodeRouterPei:AutoGen.obj
 0002:0000005c       ??_C@_0BE@DCHLEIGN@?$CBEFI_ERROR?5?$CIStatus?$CJ?$AA@ 0000305c     ReportStatusCodeRouterPei:AutoGen.obj
 0002:00000070       ??_C@_0CA@PMLNFAND@NumberOfEntries?5?$CB?$DN?5?$CI?$CIvoid?5?$CK?$CJ?50?$CJ?$AA@ 00003070     ReportStatusCodeRouterPei:ReportStatusCodeRouterPei.obj
 0002:00000090       ??_C@_0FN@MAFAJNJ@d?3?2myworkspace?2MdeModulePkg?2Univ@ 00003090     ReportStatusCodeRouterPei:ReportStatusCodeRouterPei.obj
 0002:000000f0       ??_C@_0BH@LKMBFCBF@Format?5?$CB?$DN?5?$CI?$CIvoid?5?$CK?$CJ?50?$CJ?$AA@ 000030f0     PeiDxeDebugLibReportStatusCode:DebugLib.obj
 0002:00000108       ??_C@_0FJ@PPEMNEPO@d?3?2myworkspace?2IntelFrameworkMod@ 00003108     PeiDxeDebugLibReportStatusCode:DebugLib.obj
 0002:00000164       ??_C@_0CI@HIINONDG@?$CICHAR8?5?$CK?$CJBaseListMarker?5?$DM?$DN?5Forma@ 00003164     PeiDxeDebugLibReportStatusCode:DebugLib.obj
 0002:0000018c       ??_C@_0BH@IACGKAP@Buffer?5?$CB?$DN?5?$CI?$CIvoid?5?$CK?$CJ?50?$CJ?$AA@ 0000318c     PeiDxeDebugLibReportStatusCode:DebugLib.obj
 0002:000001a8       ??_C@_0FD@DABBMLPI@d?3?2myworkspace?2MdePkg?2Library?2Pe@ 000031a8     PeiServicesTablePointerLib:PeiServicesTablePointer.obj
 0002:000001fc       ??_C@_0BN@OJIBNMOJ@gPeiServices?5?$CB?$DN?5?$CI?$CIvoid?5?$CK?$CJ?50?$CJ?$AA@ 000031fc     PeiServicesTablePointerLib:PeiServicesTablePointer.obj
 0002:0000021c       ??_C@_0DB@HFECHJN@d?3?2myworkspace?2MdePkg?2Library?2Pe@ 0000321c     PeiHobLib:HobLib.obj
 0002:00000250       ??_C@_0BI@NCGMODPG@HobList?5?$CB?$DN?5?$CI?$CIvoid?5?$CK?$CJ?50?$CJ?$AA@ 00003250     PeiHobLib:HobLib.obj
 0002:00000268       ??_C@_0BJ@NOLLDKJB@HobStart?5?$CB?$DN?5?$CI?$CIvoid?5?$CK?$CJ?50?$CJ?$AA@ 00003268     PeiHobLib:HobLib.obj
 0002:00000284       ??_C@_0BE@PICCCCHF@Hob?5?$CB?$DN?5?$CI?$CIvoid?5?$CK?$CJ?50?$CJ?$AA@ 00003284     PeiHobLib:HobLib.obj
 0002:00000298       ??_C@_0FB@EDMKDAL@d?3?2myworkspace?2MdeModulePkg?2Libr@ 00003298     PeiReportStatusCodeLib:ReportStatusCodeLib.obj
 0002:000002ec       ??_C@_0BF@OBJIPFIC@Data?5?$CB?$DN?5?$CI?$CIvoid?5?$CK?$CJ?50?$CJ?$AA@ 000032ec     PeiReportStatusCodeLib:ReportStatusCodeLib.obj
 0002:00000304       ??_C@_0BJ@IMECHJFE@Filename?5?$CB?$DN?5?$CI?$CIvoid?5?$CK?$CJ?50?$CJ?$AA@ 00003304     PeiReportStatusCodeLib:ReportStatusCodeLib.obj
 0002:00000320       ??_C@_0BM@HAIDGOCB@Description?5?$CB?$DN?5?$CI?$CIvoid?5?$CK?$CJ?50?$CJ?$AA@ 00003320     PeiReportStatusCodeLib:ReportStatusCodeLib.obj
 0002:0000033c       ??_C@_0BL@PEJNABGB@LineNumber?5?$CB?$DN?5?$CI?$CIvoid?5?$CK?$CJ?50?$CJ?$AA@ 0000333c     PeiReportStatusCodeLib:ReportStatusCodeLib.obj
 0002:00000358       ??_C@_0BL@OBAOKMLN@ErrorLevel?5?$CB?$DN?5?$CI?$CIvoid?5?$CK?$CJ?50?$CJ?$AA@ 00003358     PeiReportStatusCodeLib:ReportStatusCodeLib.obj
 0002:00000374       ??_C@_0BH@GEBIHIDM@Marker?5?$CB?$DN?5?$CI?$CIvoid?5?$CK?$CJ?50?$CJ?$AA@ 00003374     PeiReportStatusCodeLib:ReportStatusCodeLib.obj
 0002:0000038c       ??_C@_0DN@HHIHPHHB@?$CB?$CI?$CIExtendedData?5?$DN?$DN?5?$CI?$CIvoid?5?$CK?$CJ?50?$CJ?$CJ@ 0000338c     PeiReportStatusCodeLib:ReportStatusCodeLib.obj
 0002:000003cc       ??_C@_0DN@BBBIFINB@?$CB?$CI?$CIExtendedData?5?$CB?$DN?5?$CI?$CIvoid?5?$CK?$CJ?50?$CJ?$CJ@ 000033cc     PeiReportStatusCodeLib:ReportStatusCodeLib.obj
 0002:0000040c       ??_C@_0DI@MIEIGAOH@Status?5code?5extended?5data?5is?5too@ 0000340c     PeiReportStatusCodeLib:ReportStatusCodeLib.obj
 0002:00000444       ??_C@_0BM@NLNKOJGD@Destination?5?$CB?$DN?5?$CI?$CIvoid?5?$CK?$CJ?50?$CJ?$AA@ 00003444     BaseLib:String.obj
 0002:00000460       ??_C@_0CP@EAMGNBHJ@d?3?2myworkspace?2MdePkg?2Library?2Ba@ 00003460     BaseLib:String.obj
 0002:00000490       ??_C@_0BH@MAAHKCPC@String?5?$CB?$DN?5?$CI?$CIvoid?5?$CK?$CJ?50?$CJ?$AA@ 00003490     BaseLib:String.obj
 0002:000004a8       ??_C@_0CD@BDCLIGHD@?$CI?$CIUINTN?$CJ?5String?5?$CG?50x00000001?$CJ?5?$DN?$DN@ 000034a8     BaseLib:String.obj
 0002:000004cc       ??_C@_0DK@EOJCOAME@Length?5?$DM?5_gPcd_FixedAtBuild_PcdM@ 000034cc     BaseLib:String.obj
 0002:00000508       ??_C@_0DF@CDKFFDDI@?$CIUINTN?$CJ?$CIDestination?5?9?5Source?$CJ?5?$DO?5@ 00003508     BaseLib:String.obj
 0002:00000540       ??_C@_0DF@CCGJKFCO@?$CIUINTN?$CJ?$CISource?5?9?5Destination?$CJ?5?$DO?5@ 00003540     BaseLib:String.obj
 0002:00000578       ??_C@_0DI@MDIKFADO@Length?5?$DM?5_gPcd_FixedAtBuild_PcdM@ 00003578     BaseLib:String.obj
 0002:000005b0       ??_C@_0N@KGHEHMDL@Divisor?5?$CB?$DN?50?$AA@ 000035b0     BaseLib:DivU64x32.obj
 0002:000005c0       ??_C@_0DI@PHOMHDKH@?$CILength?5?9?51?$CJ?5?$DM?$DN?5?$CI0xFFFFFFFF?5?9?5?$CIU@ 000035c0     BaseMemoryLibOptPei:CopyMemWrapper.obj
 0002:000005f8       ??_C@_0ED@IOGOHALM@d?3?2myworkspace?2MdePkg?2Library?2Ba@ 000035f8     BaseMemoryLibOptPei:CopyMemWrapper.obj
 0002:0000063c       ??_C@_0DD@DCDOHCDJ@?$CILength?5?9?51?$CJ?5?$DM?$DN?5?$CI0xFFFFFFFF?5?9?5?$CIU@ 0000363c     BaseMemoryLibOptPei:CopyMemWrapper.obj
 0002:00000670       ??_C@_0FG@JEBOOHBE@d?3?2myworkspace?2Nt32Pkg?2Library?2P@ 00003670     PeiNt32OemHookStatusCodeLib:Nt32OemHookStatusCodeLib.obj
 0002:000006c8       ??_C@_0BJ@NGECPOCK@?6?$ANASSERT?$CB?3?5?$CFa?5?$CI?$CFd?$CJ?3?5?$CFa?6?$AN?$AA@ 000036c8     PeiNt32OemHookStatusCodeLib:Nt32OemHookStatusCodeLib.obj
 0002:000006e4       ??_C@_0BD@OMAHIICL@ERROR?3?5C?$CFx?3V?$CFx?5I?$CFx?$AA@ 000036e4     PeiNt32OemHookStatusCodeLib:Nt32OemHookStatusCodeLib.obj
 0002:000006f8       ??_C@_03GKLDPGLG@?5?$CFg?$AA@ 000036f8     PeiNt32OemHookStatusCodeLib:Nt32OemHookStatusCodeLib.obj
 0002:000006fc       ??_C@_03GPDAHCCA@?5?$CFp?$AA@ 000036fc     PeiNt32OemHookStatusCodeLib:Nt32OemHookStatusCodeLib.obj
 0002:00000700       ??_C@_02LIIHNNHG@?6?$AN?$AA@ 00003700     PeiNt32OemHookStatusCodeLib:Nt32OemHookStatusCodeLib.obj
 0002:00000704       ??_C@_0BJ@KDCPJMDH@PROGRESS?5CODE?3?5V?$CFx?5I?$CFx?6?$AN?$AA@ 00003704     PeiNt32OemHookStatusCodeLib:Nt32OemHookStatusCodeLib.obj
 0002:00000720       ??_C@_0BJ@KMGICPHL@Undefined?3?5C?$CFx?3V?$CFx?5I?$CFx?6?$AN?$AA@ 00003720     PeiNt32OemHookStatusCodeLib:Nt32OemHookStatusCodeLib.obj
 0002:0000073c       ??_C@_0DC@NGPEEDEA@d?3?2myworkspace?2MdePkg?2Library?2Ba@ 0000373c     BaseLib:Unaligned.obj
 0002:00000770       ??_C@_07PBILKAFL@Success?$AA@ 00003770     BasePrintLib:PrintLibInternal.obj
 0002:00000778       ??_C@_0BG@CFJMNNJK@Warning?5Unknown?5Glyph?$AA@ 00003778     BasePrintLib:PrintLibInternal.obj
 0002:00000790       ??_C@_0BH@GKKCJEPJ@Warning?5Delete?5Failure?$AA@ 00003790     BasePrintLib:PrintLibInternal.obj
 0002:000007a8       ??_C@_0BG@ECIJMOED@Warning?5Write?5Failure?$AA@ 000037a8     BasePrintLib:PrintLibInternal.obj
 0002:000007c0       ??_C@_0BJ@ODIPDGHB@Warning?5Buffer?5Too?5Small?$AA@ 000037c0     BasePrintLib:PrintLibInternal.obj
 0002:000007dc       ??_C@_0L@PLPBEPPC@Load?5Error?$AA@ 000037dc     BasePrintLib:PrintLibInternal.obj
 0002:000007e8       ??_C@_0BC@HOFHKGJN@Invalid?5Parameter?$AA@ 000037e8     BasePrintLib:PrintLibInternal.obj
 0002:000007fc       ??_C@_0M@BEECMOIL@Unsupported?$AA@ 000037fc     BasePrintLib:PrintLibInternal.obj
 0002:00000808       ??_C@_0BA@FLNMPMCF@Bad?5Buffer?5Size?$AA@ 00003808     BasePrintLib:PrintLibInternal.obj
 0002:00000818       ??_C@_0BB@EGELJFOB@Buffer?5Too?5Small?$AA@ 00003818     BasePrintLib:PrintLibInternal.obj
 0002:0000082c       ??_C@_09NKFGCIPN@Not?5Ready?$AA@ 0000382c     BasePrintLib:PrintLibInternal.obj
 0002:00000838       ??_C@_0N@HHEABDHO@Device?5Error?$AA@ 00003838     BasePrintLib:PrintLibInternal.obj
 0002:00000848       ??_C@_0BA@LNEDDFNB@Write?5Protected?$AA@ 00003848     BasePrintLib:PrintLibInternal.obj
 0002:00000858       ??_C@_0BB@GOILNEAA@Out?5of?5Resources?$AA@ 00003858     BasePrintLib:PrintLibInternal.obj
 0002:0000086c       ??_C@_0P@EIOJGIF@Volume?5Corrupt?$AA@ 0000386c     BasePrintLib:PrintLibInternal.obj
 0002:0000087c       ??_C@_0M@HDLEPOFA@Volume?5Full?$AA@ 0000387c     BasePrintLib:PrintLibInternal.obj
 0002:00000888       ??_C@_08KEGAJDNN@No?5Media?$AA@ 00003888     BasePrintLib:PrintLibInternal.obj
 0002:00000894       ??_C@_0O@JNCJKCCD@Media?5changed?$AA@ 00003894     BasePrintLib:PrintLibInternal.obj
 0002:000008a4       ??_C@_09CFCBFJND@Not?5Found?$AA@ 000038a4     BasePrintLib:PrintLibInternal.obj
 0002:000008b0       ??_C@_0O@NFHOBIDO@Access?5Denied?$AA@ 000038b0     BasePrintLib:PrintLibInternal.obj
 0002:000008c0       ??_C@_0M@ENKCBFEP@No?5Response?$AA@ 000038c0     BasePrintLib:PrintLibInternal.obj
 0002:000008cc       ??_C@_0L@IFPBNFC@No?5mapping?$AA@ 000038cc     BasePrintLib:PrintLibInternal.obj
 0002:000008d8       ??_C@_08PAFJCNGP@Time?5out?$AA@ 000038d8     BasePrintLib:PrintLibInternal.obj
 0002:000008e4       ??_C@_0M@DCJFAFHJ@Not?5started?$AA@ 000038e4     BasePrintLib:PrintLibInternal.obj
 0002:000008f0       ??_C@_0BA@IGIBFFPH@Already?5started?$AA@ 000038f0     BasePrintLib:PrintLibInternal.obj
 0002:00000900       ??_C@_07LCKDCBKK@Aborted?$AA@ 00003900     BasePrintLib:PrintLibInternal.obj
 0002:00000908       ??_C@_0L@LKIFCMNO@ICMP?5Error?$AA@ 00003908     BasePrintLib:PrintLibInternal.obj
 0002:00000914       ??_C@_0L@DJKNJKHM@TFTP?5Error?$AA@ 00003914     BasePrintLib:PrintLibInternal.obj
 0002:00000920       ??_C@_0P@NCJHBCLM@Protocol?5Error?$AA@ 00003920     BasePrintLib:PrintLibInternal.obj
 0002:00000930       ??_C@_0DO@GOAMAIEG@d?3?2myworkspace?2MdePkg?2Library?2Ba@ 00003930     BasePrintLib:PrintLibInternal.obj
 0002:00000970       ??_C@_0CB@NIHAJGJE@StrSize?5?$CI?$CICHAR16?5?$CK?$CJ?5Format?$CJ?5?$CB?$DN?50@ 00003970     BasePrintLib:PrintLibInternal.obj
 0002:00000994       ??_C@_0BL@BFEFANFD@AsciiStrSize?5?$CIFormat?$CJ?5?$CB?$DN?50?$AA@ 00003994     BasePrintLib:PrintLibInternal.obj
 0002:000009b0       ??_C@_0O@MLOLIMFM@?$DMnull?5string?$DO?$AA@ 000039b0     BasePrintLib:PrintLibInternal.obj
 0002:000009c0       ??_C@_0M@BJJDNPHK@?$DMnull?5guid?$DO?$AA@ 000039c0     BasePrintLib:PrintLibInternal.obj
 0002:000009cc       ??_C@_0DB@PMLHLBMO@?$CF08x?9?$CF04x?9?$CF04x?9?$CF02x?$CF02x?9?$CF02x?$CF02x@ 000039cc     BasePrintLib:PrintLibInternal.obj
 0002:00000a00       ??_C@_0M@LHGBCIKM@?$DMnull?5time?$DO?$AA@ 00003a00     BasePrintLib:PrintLibInternal.obj
 0002:00000a0c       ??_C@_0BK@FCPKCIDD@?$CF02d?1?$CF02d?1?$CF04d?5?5?$CF02d?3?$CF02d?$AA@ 00003a0c     BasePrintLib:PrintLibInternal.obj
 0002:00000a28       ??_C@_04JIMNDDED@?$CF08X?$AA@ 00003a28     BasePrintLib:PrintLibInternal.obj
 0002:00000a30       ??_C@_02PCIJFNDE@?$AN?6?$AA@ 00003a30     BasePrintLib:PrintLibInternal.obj
 0002:00000a34       ??_C@_01LIIJDEN@?$AN?$AA@  00003a34     BasePrintLib:PrintLibInternal.obj
 0002:00000a38       ??_C@_0EM@FPGGOFNC@?$CI?$CI?$CIFlags?5?$CG?50x00000040?$CJ?5?$DN?$DN?50?$CJ?$CJ?5?$HM?$HM@ 00003a38     BasePrintLib:PrintLibInternal.obj
 0002:00000a88       ??_C@_0EG@NFDMKACK@?$CI?$CI?$CIFlags?5?$CG?50x00000040?$CJ?5?$CB?$DN?50?$CJ?$CJ?5?$HM?$HM@ 00003a88     BasePrintLib:PrintLibInternal.obj
 0002:00000ad0       _mHexStr                   00003ad0     BasePrintLib:PrintLibInternal.obj
 0002:00000ae0       ??_C@_0DL@HKFHNCLF@d?3?2myworkspace?2MdePkg?2Library?2Ba@ 00003ae0     BaseLib:DivU64x32Remainder.obj
 0003:00000000       _gStatusCodeCallbackGuid   00004000     ReportStatusCodeRouterPei:AutoGen.obj
 0003:00000010       _gEfiCallerIdGuid          00004010     ReportStatusCodeRouterPei:AutoGen.obj
 0003:00000020       _gEfiPeiStatusCodePpiGuid  00004020     ReportStatusCodeRouterPei:AutoGen.obj
 0003:00000030       _gPeiNtThunkPpiGuid        00004030     ReportStatusCodeRouterPei:AutoGen.obj
 0003:00000040       _gEfiStatusCodeDataTypeDebugGuid 00004040     ReportStatusCodeRouterPei:AutoGen.obj
 0003:00000050       _gEfiStatusCodeSpecificDataGuid 00004050     ReportStatusCodeRouterPei:AutoGen.obj
 0003:00000060       _gEfiPeiRscHandlerPpiGuid  00004060     ReportStatusCodeRouterPei:AutoGen.obj
 0003:00000070       _mStatusCodePpiList        00004070     ReportStatusCodeRouterPei:ReportStatusCodeRouterPei.obj
 0003:0000007c       _mRscHandlerPpi            0000407c     ReportStatusCodeRouterPei:ReportStatusCodeRouterPei.obj
 0003:00000084       _mRscHandlerPpiList        00004084     ReportStatusCodeRouterPei:ReportStatusCodeRouterPei.obj
 0003:00000090       _mStatusCodePpi            00004090     ReportStatusCodeRouterPei:ReportStatusCodeRouterPei.obj
 0003:00000098       _mStatusString             00004098     BasePrintLib:PrintLibInternal.obj
 0003:0000010c       _gNullVaList               0000410c     <common>
 0003:00000110       _mStdOut                   00004110     <common>
 0003:00000114       _mWinNt                    00004114     <common>
 0003:00000118       _gPeiServices              00004118     <common>

 entry point at        0001:00000000

 Static symbols

 0001:0000191c       $$000000                   0000291c     BaseMemoryLibOptPei:CopyMem.obj
 0001:00001954       $$000000                   00002954     BaseMemoryLibOptPei:SetMem.obj
 0001:00001980       $$000000                   00002980     BaseMemoryLibOptPei:ZeroMem.obj
 0001:000019a0       $$000000                   000029a0     BaseMemoryLibOptPei:SetMem32.obj
 0001:000019b8       $$000000                   000029b8     BaseMemoryLibOptPei:SetMem64.obj
 0004:00000000       .edata                     00005000     ReportStatusCodeRouterPei.exp
 0004:00000028       rgpv                       00005028     ReportStatusCodeRouterPei.exp
 0004:0000002c       rgszName                   0000502c     ReportStatusCodeRouterPei.exp
 0004:00000030       rgwOrd                     00005030     ReportStatusCodeRouterPei.exp
 0004:00000032       szName                     00005032     ReportStatusCodeRouterPei.exp
 0004:00000050       $N00001                    00005050     ReportStatusCodeRouterPei.exp
