 UefiPxeBcDxe

 Timestamp is 52778b11 (Mon Nov 04 19:54:57 2013)

 Preferred load address is 00000000

 Start         Length     Name                   Class
 0001:00000000 00006c43H .text                   CODE
 0002:00000000 000015ebH .rdata                  DATA
 0002:000015ec 000000acH .rdata$debug            DATA
 0003:00000000 000003fcH .data                   DATA
 0003:000003fc 00000044H .bss                    DATA
 0004:00000000 00000054H .edata                  DATA

  Address         Publics by Value              Rva+Base       Lib:Object

 0001:00000000       __DriverUnloadHandler      00001000 f   UefiDriverEntryPoint:DriverEntryPoint.obj
 0001:00000023       __ModuleEntryPoint         00001023 f   UefiDriverEntryPoint:DriverEntryPoint.obj
 0001:0000009b       _ProcessLibraryConstructorList 0000109b f   UefiPxeBcDxe:AutoGen.obj
 0001:00000262       _ProcessLibraryDestructorList 00001262 f   UefiPxeBcDxe:AutoGen.obj
 0001:000002a7       _ProcessModuleEntryPointList 000012a7 f   UefiPxeBcDxe:AutoGen.obj
 0001:00000325       _PxeBcDriverBindingSupported 00001325 f   UefiPxeBcDxe:PxeBcDriver.obj
 0001:00000399       _PxeBcDriverBindingStart   00001399 f   UefiPxeBcDxe:PxeBcDriver.obj
 0001:00000864       _PxeBcDriverBindingStop    00001864 f   UefiPxeBcDxe:PxeBcDriver.obj
 0001:00000a77       _PxeBcComponentNameGetDriverName 00001a77 f   UefiPxeBcDxe:ComponentName.obj
 0001:00000aa1       _PxeBcComponentNameGetControllerName 00001aa1 f   UefiPxeBcDxe:ComponentName.obj
 0001:00000b5c       _UpdateArpCache            00001b5c f   UefiPxeBcDxe:PxeBcImpl.obj
 0001:00000c12       _ArpCacheUpdateTimeout     00001c12 f   UefiPxeBcDxe:PxeBcImpl.obj
 0001:00000c1e       _FindInArpCache            00001c1e f   UefiPxeBcDxe:PxeBcImpl.obj
 0001:00000c74       _IcmpErrorListenHandlerDpc 00001c74 f   UefiPxeBcDxe:PxeBcImpl.obj
 0001:00000d55       _IcmpErrorListenHandler    00001d55 f   UefiPxeBcDxe:PxeBcImpl.obj
 0001:00000d6c       _EfiPxeBcStart             00001d6c f   UefiPxeBcDxe:PxeBcImpl.obj
 0001:00000f1a       _EfiPxeBcStop              00001f1a f   UefiPxeBcDxe:PxeBcImpl.obj
 0001:0000100f       _EfiPxeBcDhcp              0000200f f   UefiPxeBcDxe:PxeBcImpl.obj
 0001:000013b5       _EfiPxeBcDiscover          000023b5 f   UefiPxeBcDxe:PxeBcImpl.obj
 0001:000018bc       _EfiPxeBcMtftp             000028bc f   UefiPxeBcDxe:PxeBcImpl.obj
 0001:00001ad1       _EfiPxeBcUdpWrite          00002ad1 f   UefiPxeBcDxe:PxeBcImpl.obj
 0001:00001d79       _CheckIpByFilter           00002d79 f   UefiPxeBcDxe:PxeBcImpl.obj
 0001:00001e6e       _EfiPxeBcUdpRead           00002e6e f   UefiPxeBcDxe:PxeBcImpl.obj
 0001:000021fb       _EfiPxeBcSetIpFilter       000031fb f   UefiPxeBcDxe:PxeBcImpl.obj
 0001:0000245b       _EfiPxeBcArp               0000345b f   UefiPxeBcDxe:PxeBcImpl.obj
 0001:00002531       _EfiPxeBcSetParameters     00003531 f   UefiPxeBcDxe:PxeBcImpl.obj
 0001:0000263a       _EfiPxeBcSetStationIP      0000363a f   UefiPxeBcDxe:PxeBcImpl.obj
 0001:000027a1       _EfiPxeBcSetPackets        000037a1 f   UefiPxeBcDxe:PxeBcImpl.obj
 0001:000028b4       _EfiPxeLoadFileCallback    000038b4 f   UefiPxeBcDxe:PxeBcImpl.obj
 0001:0000292d       _DiscoverBootFile          0000392d f   UefiPxeBcDxe:PxeBcImpl.obj
 0001:00002ac8       _EfiPxeLoadFile            00003ac8 f   UefiPxeBcDxe:PxeBcImpl.obj
 0001:00002d5c       _PxeBcInitSeedPacket       00003d5c f   UefiPxeBcDxe:PxeBcDhcp.obj
 0001:00002dcd       _PxeBcCopyEfiDhcp4Packet   00003dcd f   UefiPxeBcDxe:PxeBcDhcp.obj
 0001:00002e05       _PxeBcCopyProxyOffer       00003e05 f   UefiPxeBcDxe:PxeBcDhcp.obj
 0001:00002e87       _PxeBcParseCachedDhcpPacket 00003e87 f   UefiPxeBcDxe:PxeBcDhcp.obj
 0001:00002fb5       _PxeBcTryBinl              00003fb5 f   UefiPxeBcDxe:PxeBcDhcp.obj
 0001:000030a1       _PxeBcCheckSelectedOffer   000040a1 f   UefiPxeBcDxe:PxeBcDhcp.obj
 0001:00003296       _PxeBcCacheDhcpOffer       00004296 f   UefiPxeBcDxe:PxeBcDhcp.obj
 0001:0000339f       _PxeBcSelectOffer          0000439f f   UefiPxeBcDxe:PxeBcDhcp.obj
 0001:000034ff       _PxeBcDhcpCallBack         000044ff f   UefiPxeBcDxe:PxeBcDhcp.obj
 0001:00003690       _PxeBcBuildDhcpOptions     00004690 f   UefiPxeBcDxe:PxeBcDhcp.obj
 0001:000038bb       _PxeBcDiscvBootService     000048bb f   UefiPxeBcDxe:PxeBcDhcp.obj
 0001:00003c61       _PxeBcParseExtendOptions   00004c61 f   UefiPxeBcDxe:PxeBcDhcp.obj
 0001:00003c9a       _PxeBcParseVendorOptions   00004c9a f   UefiPxeBcDxe:PxeBcDhcp.obj
 0001:00003e22       _PxeBcDisplayBootItem      00004e22 f   UefiPxeBcDxe:PxeBcDhcp.obj
 0001:00003e50       _PxeBcSelectBootPrompt     00004e50 f   UefiPxeBcDxe:PxeBcDhcp.obj
 0001:000040b3       _PxeBcSelectBootMenu       000050b3 f   UefiPxeBcDxe:PxeBcDhcp.obj
 0001:00004403       _PxeBcCheckPacket          00005403 f   UefiPxeBcDxe:PxeBcMtftp.obj
 0001:00004471       _PxeBcTftpGetFileSize      00005471 f   UefiPxeBcDxe:PxeBcMtftp.obj
 0001:00004608       _PxeBcTftpReadFile         00005608 f   UefiPxeBcDxe:PxeBcMtftp.obj
 0001:000046f6       _PxeBcTftpWriteFile        000056f6 f   UefiPxeBcDxe:PxeBcMtftp.obj
 0001:000047c5       _PxeBcTftpReadDirectory    000057c5 f   UefiPxeBcDxe:PxeBcMtftp.obj
 0001:000048b3       _PxeBcCommonNotify         000058b3 f   UefiPxeBcDxe:PxeBcSupport.obj
 0001:000048bb       _PxeBcConfigureUdpWriteInstance 000058bb f   UefiPxeBcDxe:PxeBcSupport.obj
 0001:0000497a       _UtoA10                    0000597a f   UefiPxeBcDxe:PxeBcSupport.obj
 0001:000049b7       _AtoU64                    000059b7 f   UefiPxeBcDxe:PxeBcSupport.obj
 0001:00004a09       _DebugPrint                00005a09 f   PeiDxeDebugLibReportStatusCode:DebugLib.obj
 0001:00004b74       _DebugAssert               00005b74 f   PeiDxeDebugLibReportStatusCode:DebugLib.obj
 0001:00004c13       _InternalAllocatePool      00005c13 f   UefiMemoryAllocationLib:MemoryAllocationLib.obj
 0001:00004c37       _InternalAllocateZeroPool  00005c37 f   UefiMemoryAllocationLib:MemoryAllocationLib.obj
 0001:00004c4f       _InternalAllocateCopyPool  00005c4f f   UefiMemoryAllocationLib:MemoryAllocationLib.obj
 0001:00004ca8       _FreePool                  00005ca8 f   UefiMemoryAllocationLib:MemoryAllocationLib.obj
 0001:00004ce1       _CopyMem                   00005ce1 f   BaseMemoryLibOptDxe:CopyMemWrapper.obj
 0001:00004d46       _ZeroMem                   00005d46 f   BaseMemoryLibOptDxe:ZeroMemWrapper.obj
 0001:00004d8f       _CompareMem                00005d8f f   BaseMemoryLibOptDxe:CompareMemWrapper.obj
 0001:00004e1e       _SetMem                    00005e1e f   BaseMemoryLibOptDxe:SetMemWrapper.obj
 0001:00004e56       _SwapBytes32               00005e56 f   BaseLib:SwapBytes32.obj
 0001:00004e6f       _StrLen                    00005e6f f   BaseLib:String.obj
 0001:00004ed7       _StrSize                   00005ed7 f   BaseLib:String.obj
 0001:00004ee6       _AsciiStrCpy               00005ee6 f   BaseLib:String.obj
 0001:00004f60       _AsciiStrnCpy              00005f60 f   BaseLib:String.obj
 0001:00004fff       _AsciiStrLen               00005fff f   BaseLib:String.obj
 0001:0000504a       _AsciiStrnCmp              0000604a f   BaseLib:String.obj
 0001:000050cc       _CompareIso639LanguageCode 000060cc f   UefiLib:UefiLib.obj
 0001:000050e6       _EfiGetSystemConfigurationTable 000060e6 f   UefiLib:UefiLib.obj
 0001:00005170       _LookupUnicodeString2      00006170 f   UefiLib:UefiLib.obj
 0001:0000526e       _AsciiInternalPrint        0000626e f   UefiLib:UefiLibPrint.obj
 0001:000052fe       _AsciiPrint                000062fe f   UefiLib:UefiLibPrint.obj
 0001:00005333       _GetHobList                00006333 f   DxeHobLib:HobLib.obj
 0001:00005355       _GetNextHob                00006355 f   DxeHobLib:HobLib.obj
 0001:00005392       _GetDebugPrintErrorLevel   00006392 f   DxeDebugPrintErrorLevelLib:DxeDebugPrintErrorLevelLib.obj
 0001:00005488       _GetDebugMask              00006488 f   DxeDebugPrintErrorLevelLib:DxeDebugPrintErrorLevelLib.obj
 0001:000054a0       _SetDebugMask              000064a0 f   DxeDebugPrintErrorLevelLib:DxeDebugPrintErrorLevelLib.obj
 0001:000054ac       _UefiHiiServicesLibConstructor 000064ac f   UefiHiiServicesLib:UefiHiiServicesLib.obj
 0001:00005599       _NetIp4IsUnicast           00006599 f   DxeNetLib:DxeNetLib.obj
 0001:000055fb       _NetRandomInitSeed         000065fb f   DxeNetLib:DxeNetLib.obj
 0001:00005640       _NetLibDefaultUnload       00006640 f   DxeNetLib:DxeNetLib.obj
 0001:00005785       _NetLibCreateServiceChild  00006785 f   DxeNetLib:DxeNetLib.obj
 0001:000057dd       _NetLibDestroyServiceChild 000067dd f   DxeNetLib:DxeNetLib.obj
 0001:00005830       _NetLibGetSnpHandle        00006830 f   DxeNetLib:DxeNetLib.obj
 0001:000058be       _NetLibDetectMedia         000068be f   DxeNetLib:DxeNetLib.obj
 0001:00005a7c       _NetLibGetNicHandle        00006a7c f   DxeNetLib:DxeNetLib.obj
 0001:00005ad7       _NetLibGetSystemGuid       00006ad7 f   DxeNetLib:DxeNetLib.obj
 0001:00005b49       _InternalGetReportStatusCode 00006b49 f   DxeReportStatusCodeLib:ReportStatusCodeLib.obj
 0001:00005b8a       _InternalReportStatusCode  00006b8a f   DxeReportStatusCodeLib:ReportStatusCodeLib.obj
 0001:00005bd1       _ReportStatusCodeEx        00006bd1 f   DxeReportStatusCodeLib:ReportStatusCodeLib.obj
 0001:00005d22       _DevicePathFromHandle      00006d22 f   UefiDevicePathLib:UefiDevicePathLib.obj
 0001:00005d49       _CopyGuid                  00006d49 f   BaseMemoryLibOptDxe:MemLibGuid.obj
 0001:00005d79       _CompareGuid               00006d79 f   BaseMemoryLibOptDxe:MemLibGuid.obj
 0001:00005dd8       _ReadUnaligned16           00006dd8 f   BaseLib:Unaligned.obj
 0001:00005df7       _ReadUnaligned24           00006df7 f   BaseLib:Unaligned.obj
 0001:00005e1a       _ReadUnaligned32           00006e1a f   BaseLib:Unaligned.obj
 0001:00005e3a       _ReadUnaligned64           00006e3a f   BaseLib:Unaligned.obj
 0001:00005e5d       _WriteUnaligned64          00006e5d f   BaseLib:Unaligned.obj
 0001:00005e88       _UnicodeVSPrintAsciiFormat 00006e88 f   BasePrintLib:PrintLib.obj
 0001:00005ec4       _BasePrintLibFillBuffer    00006ec4 f   BasePrintLib:PrintLibInternal.obj
 0001:00005ef8       _BasePrintLibValueToString 00006ef8 f   BasePrintLib:PrintLibInternal.obj
 0001:00005f5b       _BasePrintLibSPrintMarker  00006f5b f   BasePrintLib:PrintLibInternal.obj
 0001:00006b0d       _BasePrintLibSPrint        00007b0d f   BasePrintLib:PrintLibInternal.obj
 0001:00006b30       _InternalMemCopyMem        00007b30 f   BaseMemoryLibOptDxe:CopyMem.obj
 0001:00006ba0       _InternalMemZeroMem        00007ba0 f   BaseMemoryLibOptDxe:ZeroMem.obj
 0001:00006bc0       _InternalMemCompareMem     00007bc0 f   BaseMemoryLibOptDxe:CompareMem.obj
 0001:00006be0       _InternalMemSetMem         00007be0 f   BaseMemoryLibOptDxe:SetMem.obj
 0001:00006c0c       _InternalMemSetMem32       00007c0c f   BaseMemoryLibOptDxe:SetMem32.obj
 0001:00006c24       _InternalMemSetMem64       00007c24 f   BaseMemoryLibOptDxe:SetMem64.obj
 0002:00000038       ??_C@_0CB@DMEJJJHA@?6ASSERT_EFI_ERROR?5?$CIStatus?5?$DN?5?$CFr?$CJ?6@ 00008038     UefiDriverEntryPoint:DriverEntryPoint.obj
 0002:0000005c       ??_C@_0BE@DCHLEIGN@?$CBEFI_ERROR?5?$CIStatus?$CJ?$AA@ 0000805c     UefiDriverEntryPoint:DriverEntryPoint.obj
 0002:00000070       ??_C@_0EG@POHNLCG@d?3?2myworkspace?2MdePkg?2Library?2Ue@ 00008070     UefiDriverEntryPoint:DriverEntryPoint.obj
 0002:000000b8       __gUefiDriverRevision      000080b8     UefiPxeBcDxe:AutoGen.obj
 0002:000000c0       ??_C@_0HM@BAHCMFGL@d?3?2myworkspace?2Build?2NT32?2DEBUG_@ 000080c0     UefiPxeBcDxe:AutoGen.obj
 0002:0000013c       ??_C@_0BF@NDBIKIKC@CR?5has?5Bad?5Signature?$AA@ 0000813c     UefiPxeBcDxe:PxeBcDriver.obj
 0002:00000158       ??_C@_0EJ@OHGGLOJO@d?3?2myworkspace?2MdeModulePkg?2Univ@ 00008158     UefiPxeBcDxe:PxeBcDriver.obj
 0002:000001a4       ??_C@_03LKLGDMJI@eng?$AA@  000081a4     UefiPxeBcDxe:ComponentName.obj
 0002:000001a8       ??_C@_02LFNMGJAP@en?$AA@   000081a8     UefiPxeBcDxe:ComponentName.obj
 0002:000001ac       ??_C@_06DALJLGPG@eng?$DLen?$AA@ 000081ac     UefiPxeBcDxe:ComponentName.obj
 0002:000001b4       ??_C@_1DE@DLEHGBLE@?$AAU?$AAE?$AAF?$AAI?$AA?5?$AAP?$AAX?$AAE?$AA?5?$AAB?$AAa?$AAs?$AAe?$AA?5?$AAC?$AAo?$AAd?$AAe?$AA?5?$AAD?$AAr?$AAi?$AAv?$AAe?$AAr?$AA?$AA@ 000081b4     UefiPxeBcDxe:ComponentName.obj
 0002:000001e8       ??_C@_1BO@MKJHNEPA@?$AAP?$AAX?$AAE?$AA?5?$AAC?$AAo?$AAn?$AAt?$AAr?$AAo?$AAl?$AAl?$AAe?$AAr?$AA?$AA@ 000081e8     UefiPxeBcDxe:ComponentName.obj
 0002:00000208       ??_C@_0EH@BKMEBEPG@d?3?2myworkspace?2MdeModulePkg?2Univ@ 00008208     UefiPxeBcDxe:PxeBcImpl.obj
 0002:00000250       ??_C@_0BO@LKFNDDOB@Dhcp4Mode?4State?5?$DN?$DN?5Dhcp4Bound?$AA@ 00008250     UefiPxeBcDxe:PxeBcImpl.obj
 0002:00000270       ??_C@_0BO@DAMDGJKA@PxeBcMode?9?$DOIpFilter?4IpCnt?5?$DM?58?$AA@ 00008270     UefiPxeBcDxe:PxeBcImpl.obj
 0002:00000290       ??_C@_0BH@GJHHIFJN@RxData?5?$CB?$DN?5?$CI?$CIvoid?5?$CK?$CJ?50?$CJ?$AA@ 00008290     UefiPxeBcDxe:PxeBcImpl.obj
 0002:000002a8       ??_C@_0P@LIOMOKKF@This?5?$DN?$DN?5NULL?4?6?$AA@ 000082a8     UefiPxeBcDxe:PxeBcImpl.obj
 0002:000002b8       ??_C@_0BE@GBJEHEDC@NewFilter?5?$DN?$DN?5NULL?4?6?$AA@ 000082b8     UefiPxeBcDxe:PxeBcImpl.obj
 0002:000002cc       ??_C@_0BI@BNIBOPJH@NewFilter?9?$DOIpCnt?5?$DO?5?$CFd?4?6?$AA@ 000082cc     UefiPxeBcDxe:PxeBcImpl.obj
 0002:000002e4       ??_C@_0BF@BFOOKPAB@BC?5was?5not?5started?4?6?$AA@ 000082e4     UefiPxeBcDxe:PxeBcImpl.obj
 0002:000002fc       ??_C@_0CD@DJAPOMLM@This?5driver?5is?5PXE?5for?5IPv4?5Only@ 000082fc     UefiPxeBcDxe:PxeBcImpl.obj
 0002:00000320       ??_C@_0CK@FFMLKPIB@There?5is?5broadcast?5address?5in?5Ne@ 00008320     UefiPxeBcDxe:PxeBcImpl.obj
 0002:0000034c       ??_C@_01LFCBOECM@?4?$AA@   0000834c     UefiPxeBcDxe:PxeBcImpl.obj
 0002:00000350       ??_C@_0CH@NCIMLBGH@Packet?9?$DODhcp4Option?$FL6?$FN?5?$CB?$DN?5?$CI?$CIvoid@ 00008350     UefiPxeBcDxe:PxeBcImpl.obj
 0002:00000378       ??_C@_0DK@LPFJBBNC@PXE?9E05?3?5Download?5buffer?5is?5smal@ 00008378     UefiPxeBcDxe:PxeBcImpl.obj
 0002:000003b4       ??_C@_0CA@DKKMBBFI@PXE?9E07?3?5Network?5device?5error?4?6?$AA@ 000083b4     UefiPxeBcDxe:PxeBcImpl.obj
 0002:000003d4       ??_C@_0CK@KDODIHKJ@PXE?9E09?3?5Could?5not?5allocate?5I?1O?5@ 000083d4     UefiPxeBcDxe:PxeBcImpl.obj
 0002:00000400       ??_C@_0CP@BMPADBBD@PXE?9E12?3?5Could?5not?5detect?5networ@ 00008400     UefiPxeBcDxe:PxeBcImpl.obj
 0002:00000430       ??_C@_0BN@EBHALIAM@PXE?9E16?3?5No?5offer?5received?4?6?$AA@ 00008430     UefiPxeBcDxe:PxeBcImpl.obj
 0002:00000450       ??_C@_0CD@PPLMCNPL@PXE?9E18?3?5Server?5response?5timeout@ 00008450     UefiPxeBcDxe:PxeBcImpl.obj
 0002:00000474       ??_C@_0CB@LDGBAGOA@PXE?9E21?3?5Remote?5boot?5cancelled?4?6@ 00008474     UefiPxeBcDxe:PxeBcImpl.obj
 0002:00000498       ??_C@_0DC@ECCNBKEH@PXE?9E22?3?5Client?5received?5ICMP?5er@ 00008498     UefiPxeBcDxe:PxeBcImpl.obj
 0002:000004cc       ??_C@_0DC@DALEJIMP@PXE?9E23?3?5Client?5received?5TFTP?5er@ 000084cc     UefiPxeBcDxe:PxeBcImpl.obj
 0002:00000500       ??_C@_0CE@FOIGNOLC@PXE?9E99?3?5Unexpected?5network?5erro@ 00008500     UefiPxeBcDxe:PxeBcImpl.obj
 0002:00000524       ??_C@_0BJ@EBBAPAJB@Dst?9?$DOSize?5?$DO?$DN?5Src?9?$DOLength?$AA@ 00008524     UefiPxeBcDxe:PxeBcDhcp.obj
 0002:00000540       ??_C@_0EH@BGFBOBPA@d?3?2myworkspace?2MdeModulePkg?2Univ@ 00008540     UefiPxeBcDxe:PxeBcDhcp.obj
 0002:00000588       ??_C@_0CA@GOIAFEIH@OfferIndex?5?$DM?5Private?9?$DONumOffers?$AA@ 00008588     UefiPxeBcDxe:PxeBcDhcp.obj
 0002:000005a8       ??_C@_0BA@DHHEBEAN@OfferIndex?5?$DM?516?$AA@ 000085a8     UefiPxeBcDxe:PxeBcDhcp.obj
 0002:000005b8       ??_C@_0CB@IIAGGHCA@PXEClient?3Arch?3xxxxx?3UNDI?3003000@ 000085b8     UefiPxeBcDxe:PxeBcDhcp.obj
 0002:000005dc       ??_C@_0L@NPKKFMNM@Index?5?$DM?516?$AA@ 000085dc     UefiPxeBcDxe:PxeBcDhcp.obj
 0002:000005e8       ??_C@_0CL@LLMBCDG@Private?9?$DODhcp4Offers?$FLIndex?$FN?4Offe@ 000085e8     UefiPxeBcDxe:PxeBcDhcp.obj
 0002:00000614       ??_C@_0BM@FHJLFFCP@Private?9?$DOSelectedOffer?5?$CB?$DN?50?$AA@ 00008614     UefiPxeBcDxe:PxeBcDhcp.obj
 0002:00000630       ??_C@_0DB@OHOIDDKM@Private?9?$DOProxyIndex?$FLPrivate?9?$DOPro@ 00008630     UefiPxeBcDxe:PxeBcDhcp.obj
 0002:00000664       ??_C@_0BL@HMMMKOIM@Options?$FL6?$FN?5?$CB?$DN?5?$CI?$CIvoid?5?$CK?$CJ?50?$CJ?$AA@ 00008664     UefiPxeBcDxe:PxeBcDhcp.obj
 0002:00000680       ??_C@_0CF@HCAELLB@Private?9?$DOServerCount?$FLOfferType?$FN?5@ 00008680     UefiPxeBcDxe:PxeBcDhcp.obj
 0002:000006a8       ??_C@_0BG@EAGKPCGM@Layer?5?$CB?$DN?5?$CI?$CIvoid?5?$CK?$CJ?50?$CJ?$AA@ 000086a8     UefiPxeBcDxe:PxeBcDhcp.obj
 0002:000006c0       ??_C@_04HBMEJGJK@?$CFa?5?6?$AA@ 000086c0     UefiPxeBcDxe:PxeBcDhcp.obj
 0002:000006c8       ??_C@_05LKLPEAOK@?$CI?$CFd?$CJ?5?$AA@ 000086c8     UefiPxeBcDxe:PxeBcDhcp.obj
 0002:000006d0       ??_C@_0BH@NDKNGHBC@Packet?9?$DOOfferType?5?$DN?$DN?50?$AA@ 000086d0     UefiPxeBcDxe:PxeBcDhcp.obj
 0002:000006e8       ??_C@_0M@CKKKMFOF@Select?5?$DM?524?$AA@ 000086e8     UefiPxeBcDxe:PxeBcDhcp.obj
 0002:000006f4       ??_C@_03LFOMKALF@?$CFa?$AN?$AA@ 000086f4     UefiPxeBcDxe:PxeBcDhcp.obj
 0002:000006f8       ??_C@_07JPIGAOKK@blksize?$AA@ 000086f8     UefiPxeBcDxe:PxeBcMtftp.obj
 0002:00000700       ??_C@_07DDHNKDGP@timeout?$AA@ 00008700     UefiPxeBcDxe:PxeBcMtftp.obj
 0002:00000708       ??_C@_05GHDOEBHJ@tsize?$AA@ 00008708     UefiPxeBcDxe:PxeBcMtftp.obj
 0002:00000710       ??_C@_09HCCMHGIN@multicast?$AA@ 00008710     UefiPxeBcDxe:PxeBcMtftp.obj
 0002:0000071c       ??_C@_0BH@LKMBFCBF@Format?5?$CB?$DN?5?$CI?$CIvoid?5?$CK?$CJ?50?$CJ?$AA@ 0000871c     PeiDxeDebugLibReportStatusCode:DebugLib.obj
 0002:00000738       ??_C@_0FJ@PPEMNEPO@d?3?2myworkspace?2IntelFrameworkMod@ 00008738     PeiDxeDebugLibReportStatusCode:DebugLib.obj
 0002:00000794       ??_C@_0CI@HIINONDG@?$CICHAR8?5?$CK?$CJBaseListMarker?5?$DM?$DN?5Forma@ 00008794     PeiDxeDebugLibReportStatusCode:DebugLib.obj
 0002:000007bc       ??_C@_0BH@IACGKAP@Buffer?5?$CB?$DN?5?$CI?$CIvoid?5?$CK?$CJ?50?$CJ?$AA@ 000087bc     PeiDxeDebugLibReportStatusCode:DebugLib.obj
 0002:000007d8       ??_C@_0EM@MDJMIFIM@d?3?2myworkspace?2MdePkg?2Library?2Ue@ 000087d8     UefiMemoryAllocationLib:MemoryAllocationLib.obj
 0002:00000824       ??_C@_0DE@FCAJAHCJ@AllocationSize?5?$DM?$DN?5?$CI0xFFFFFFFF?5?9?5@ 00008824     UefiMemoryAllocationLib:MemoryAllocationLib.obj
 0002:00000858       ??_C@_0DI@PHOMHDKH@?$CILength?5?9?51?$CJ?5?$DM?$DN?5?$CI0xFFFFFFFF?5?9?5?$CIU@ 00008858     BaseMemoryLibOptDxe:CopyMemWrapper.obj
 0002:00000890       ??_C@_0ED@GBCNNLAE@d?3?2myworkspace?2MdePkg?2Library?2Ba@ 00008890     BaseMemoryLibOptDxe:CopyMemWrapper.obj
 0002:000008d4       ??_C@_0DD@DCDOHCDJ@?$CILength?5?9?51?$CJ?5?$DM?$DN?5?$CI0xFFFFFFFF?5?9?5?$CIU@ 000088d4     BaseMemoryLibOptDxe:CopyMemWrapper.obj
 0002:00000908       ??_C@_0CI@MNELLLEK@?$CB?$CIBuffer?5?$DN?$DN?5?$CI?$CIvoid?5?$CK?$CJ?50?$CJ?5?$CG?$CG?5Leng@ 00008908     BaseMemoryLibOptDxe:ZeroMemWrapper.obj
 0002:00000930       ??_C@_0ED@NFIPLKMD@d?3?2myworkspace?2MdePkg?2Library?2Ba@ 00008930     BaseMemoryLibOptDxe:ZeroMemWrapper.obj
 0002:00000974       ??_C@_0CL@OBMFBPED@Length?5?$DM?$DN?5?$CI0xFFFFFFFF?5?9?5?$CIUINTN?$CJB@ 00008974     BaseMemoryLibOptDxe:ZeroMemWrapper.obj
 0002:000009a0       ??_C@_0CC@JOEHDGKB@DestinationBuffer?5?$CB?$DN?5?$CI?$CIvoid?5?$CK?$CJ?50@ 000089a0     BaseMemoryLibOptDxe:CompareMemWrapper.obj
 0002:000009c8       ??_C@_0EG@KIBCAHOO@d?3?2myworkspace?2MdePkg?2Library?2Ba@ 000089c8     BaseMemoryLibOptDxe:CompareMemWrapper.obj
 0002:00000a10       ??_C@_0BN@MDMCNBCC@SourceBuffer?5?$CB?$DN?5?$CI?$CIvoid?5?$CK?$CJ?50?$CJ?$AA@ 00008a10     BaseMemoryLibOptDxe:CompareMemWrapper.obj
 0002:00000a30       ??_C@_0CN@BPIPMCPJ@?$CILength?5?9?51?$CJ?5?$DM?$DN?5?$CI0xFFFFFFFF?5?9?5?$CIU@ 00008a30     BaseMemoryLibOptDxe:SetMemWrapper.obj
 0002:00000a60       ??_C@_0EC@KILAAFLC@d?3?2myworkspace?2MdePkg?2Library?2Ba@ 00008a60     BaseMemoryLibOptDxe:SetMemWrapper.obj
 0002:00000aa4       ??_C@_0BM@NLNKOJGD@Destination?5?$CB?$DN?5?$CI?$CIvoid?5?$CK?$CJ?50?$CJ?$AA@ 00008aa4     BaseLib:String.obj
 0002:00000ac0       ??_C@_0CP@EAMGNBHJ@d?3?2myworkspace?2MdePkg?2Library?2Ba@ 00008ac0     BaseLib:String.obj
 0002:00000af0       ??_C@_0CI@FOLEBOJ@?$CIUINTN?$CJ?$CISource?5?9?5Destination?$CJ?5?$DO?$DN@ 00008af0     BaseLib:String.obj
 0002:00000b18       ??_C@_0BH@MAAHKCPC@String?5?$CB?$DN?5?$CI?$CIvoid?5?$CK?$CJ?50?$CJ?$AA@ 00008b18     BaseLib:String.obj
 0002:00000b30       ??_C@_0CD@BDCLIGHD@?$CI?$CIUINTN?$CJ?5String?5?$CG?50x00000001?$CJ?5?$DN?$DN@ 00008b30     BaseLib:String.obj
 0002:00000b54       ??_C@_0DK@EOJCOAME@Length?5?$DM?5_gPcd_FixedAtBuild_PcdM@ 00008b54     BaseLib:String.obj
 0002:00000b90       ??_C@_0DF@CDKFFDDI@?$CIUINTN?$CJ?$CIDestination?5?9?5Source?$CJ?5?$DO?5@ 00008b90     BaseLib:String.obj
 0002:00000bc8       ??_C@_0DF@CCGJKFCO@?$CIUINTN?$CJ?$CISource?5?9?5Destination?$CJ?5?$DO?5@ 00008bc8     BaseLib:String.obj
 0002:00000c00       ??_C@_0DJ@JJHGIFMP@Length?5?$DM?$DN?5_gPcd_FixedAtBuild_Pcd@ 00008c00     BaseLib:String.obj
 0002:00000c3c       ??_C@_0DI@MDIKFADO@Length?5?$DM?5_gPcd_FixedAtBuild_PcdM@ 00008c3c     BaseLib:String.obj
 0002:00000c74       ??_C@_0BL@IKFBNFIL@AsciiStrSize?5?$CIFirstString?$CJ?$AA@ 00008c74     BaseLib:String.obj
 0002:00000c90       ??_C@_0BM@EDNOKLLE@AsciiStrSize?5?$CISecondString?$CJ?$AA@ 00008c90     BaseLib:String.obj
 0002:00000cac       ??_C@_0N@KGHEHMDL@Divisor?5?$CB?$DN?50?$AA@ 00008cac     BaseLib:DivU64x32.obj
 0002:00000cbc       ??_C@_0BN@COECPDCC@gImageHandle?5?$CB?$DN?5?$CI?$CIvoid?5?$CK?$CJ?50?$CJ?$AA@ 00008cbc     UefiBootServicesTableLib:UefiBootServicesTableLib.obj
 0002:00000ce0       ??_C@_0FC@CHGHPDAC@d?3?2myworkspace?2MdePkg?2Library?2Ue@ 00008ce0     UefiBootServicesTableLib:UefiBootServicesTableLib.obj
 0002:00000d34       ??_C@_0BE@DGNHAHIL@gST?5?$CB?$DN?5?$CI?$CIvoid?5?$CK?$CJ?50?$CJ?$AA@ 00008d34     UefiBootServicesTableLib:UefiBootServicesTableLib.obj
 0002:00000d48       ??_C@_0BE@BDFJLGLN@gBS?5?$CB?$DN?5?$CI?$CIvoid?5?$CK?$CJ?50?$CJ?$AA@ 00008d48     UefiBootServicesTableLib:UefiBootServicesTableLib.obj
 0002:00000d5c       ??_C@_0BE@OBDFIHND@gRT?5?$CB?$DN?5?$CI?$CIvoid?5?$CK?$CJ?50?$CJ?$AA@ 00008d5c     UefiRuntimeServicesTableLib:UefiRuntimeServicesTableLib.obj
 0002:00000d70       ??_C@_0FI@JAAEOOHA@d?3?2myworkspace?2MdePkg?2Library?2Ue@ 00008d70     UefiRuntimeServicesTableLib:UefiRuntimeServicesTableLib.obj
 0002:00000dc8       ??_C@_0BK@PPOBBAMB@TableGuid?5?$CB?$DN?5?$CI?$CIvoid?5?$CK?$CJ?50?$CJ?$AA@ 00008dc8     UefiLib:UefiLib.obj
 0002:00000de4       ??_C@_0DA@BAMHPGBM@d?3?2myworkspace?2MdePkg?2Library?2Ue@ 00008de4     UefiLib:UefiLib.obj
 0002:00000e14       ??_C@_0BG@JDKEGFNB@Table?5?$CB?$DN?5?$CI?$CIvoid?5?$CK?$CJ?50?$CJ?$AA@ 00008e14     UefiLib:UefiLib.obj
 0002:00000e2c       ??_C@_0DI@EAKGNDEJ@d?3?2myworkspace?2MdePkg?2Library?2Ue@ 00008e2c     UefiLib:UefiDriverModel.obj
 0002:00000e64       ??_C@_0DF@DBOLEGEP@d?3?2myworkspace?2MdePkg?2Library?2Ue@ 00008e64     UefiLib:UefiLibPrint.obj
 0002:00000e9c       ??_C@_0BI@DIKLKBJC@Console?5?$CB?$DN?5?$CI?$CIvoid?5?$CK?$CJ?50?$CJ?$AA@ 00008e9c     UefiLib:UefiLibPrint.obj
 0002:00000eb4       ??_C@_0DB@LFGOOKNH@d?3?2myworkspace?2MdePkg?2Library?2Dx@ 00008eb4     DxeHobLib:HobLib.obj
 0002:00000ee8       ??_C@_0BJ@OBFMLLDO@mHobList?5?$CB?$DN?5?$CI?$CIvoid?5?$CK?$CJ?50?$CJ?$AA@ 00008ee8     DxeHobLib:HobLib.obj
 0002:00000f04       ??_C@_0BJ@NOLLDKJB@HobStart?5?$CB?$DN?5?$CI?$CIvoid?5?$CK?$CJ?50?$CJ?$AA@ 00008f04     DxeHobLib:HobLib.obj
 0002:00000f20       ??_C@_1BC@DPOIABCP@?$AAE?$AAF?$AAI?$AAD?$AAe?$AAb?$AAu?$AAg?$AA?$AA@ 00008f20     DxeDebugPrintErrorLevelLib:DxeDebugPrintErrorLevelLib.obj
 0002:00000f38       ??_C@_0EM@KKODNMEN@d?3?2myworkspace?2MdeModulePkg?2Libr@ 00008f38     UefiHiiServicesLib:UefiHiiServicesLib.obj
 0002:00000f84       ??_C@_0DK@KLPAOFNC@d?3?2myworkspace?2MdeModulePkg?2Libr@ 00008f84     DxeNetLib:DxeNetLib.obj
 0002:00000fc0       ??_C@_0EG@FMMHPKDI@?$CIServiceBindingGuid?5?$CB?$DN?5?$CI?$CIvoid?5?$CK?$CJ@ 00008fc0     DxeNetLib:DxeNetLib.obj
 0002:00001008       ??_C@_0CD@PCCGAHJM@ServiceBindingGuid?5?$CB?$DN?5?$CI?$CIvoid?5?$CK?$CJ?5@ 00009008     DxeNetLib:DxeNetLib.obj
 0002:0000102c       ??_C@_0BN@NHNKBDLL@MediaPresent?5?$CB?$DN?5?$CI?$CIvoid?5?$CK?$CJ?50?$CJ?$AA@ 0000902c     DxeNetLib:DxeNetLib.obj
 0002:0000104c       ??_C@_0BM@CPKMECHF@MCastFilter?5?$CB?$DN?5?$CI?$CIvoid?5?$CK?$CJ?50?$CJ?$AA@ 0000904c     DxeNetLib:DxeNetLib.obj
 0002:00001068       ??_C@_0DH@KGFJCKEI@d?3?2myworkspace?2MdeModulePkg?2Libr@ 00009068     DxeDpcLib:DpcLib.obj
 0002:000010a0       ??_C@_0FB@ILKBFLFI@d?3?2myworkspace?2MdeModulePkg?2Libr@ 000090a0     DxeReportStatusCodeLib:ReportStatusCodeLib.obj
 0002:000010f4       ??_C@_0DN@HHIHPHHB@?$CB?$CI?$CIExtendedData?5?$DN?$DN?5?$CI?$CIvoid?5?$CK?$CJ?50?$CJ?$CJ@ 000090f4     DxeReportStatusCodeLib:ReportStatusCodeLib.obj
 0002:00001134       ??_C@_0DN@BBBIFINB@?$CB?$CI?$CIExtendedData?5?$CB?$DN?5?$CI?$CIvoid?5?$CK?$CJ?50?$CJ?$CJ@ 00009134     DxeReportStatusCodeLib:ReportStatusCodeLib.obj
 0002:00001174       ??_C@_0DI@MIEIGAOH@Status?5code?5extended?5data?5is?5too@ 00009174     DxeReportStatusCodeLib:ReportStatusCodeLib.obj
 0002:000011ac       ??_C@_0DC@NGPEEDEA@d?3?2myworkspace?2MdePkg?2Library?2Ba@ 000091ac     BaseLib:Unaligned.obj
 0002:000011e0       ??_C@_0CI@BGLNHBLM@?$CI?$CI?$CIUINTN?$CJ?5?$CIStartOfBuffer?$CJ?$CJ?5?$CG?50x0@ 000091e0     BasePrintLib:PrintLib.obj
 0002:00001208       ??_C@_0DG@PDLDNIEO@d?3?2myworkspace?2MdePkg?2Library?2Ba@ 00009208     BasePrintLib:PrintLib.obj
 0002:00001240       ??_C@_07PBILKAFL@Success?$AA@ 00009240     BasePrintLib:PrintLibInternal.obj
 0002:00001248       ??_C@_0BG@CFJMNNJK@Warning?5Unknown?5Glyph?$AA@ 00009248     BasePrintLib:PrintLibInternal.obj
 0002:00001260       ??_C@_0BH@GKKCJEPJ@Warning?5Delete?5Failure?$AA@ 00009260     BasePrintLib:PrintLibInternal.obj
 0002:00001278       ??_C@_0BG@ECIJMOED@Warning?5Write?5Failure?$AA@ 00009278     BasePrintLib:PrintLibInternal.obj
 0002:00001290       ??_C@_0BJ@ODIPDGHB@Warning?5Buffer?5Too?5Small?$AA@ 00009290     BasePrintLib:PrintLibInternal.obj
 0002:000012ac       ??_C@_0L@PLPBEPPC@Load?5Error?$AA@ 000092ac     BasePrintLib:PrintLibInternal.obj
 0002:000012b8       ??_C@_0BC@HOFHKGJN@Invalid?5Parameter?$AA@ 000092b8     BasePrintLib:PrintLibInternal.obj
 0002:000012cc       ??_C@_0M@BEECMOIL@Unsupported?$AA@ 000092cc     BasePrintLib:PrintLibInternal.obj
 0002:000012d8       ??_C@_0BA@FLNMPMCF@Bad?5Buffer?5Size?$AA@ 000092d8     BasePrintLib:PrintLibInternal.obj
 0002:000012e8       ??_C@_0BB@EGELJFOB@Buffer?5Too?5Small?$AA@ 000092e8     BasePrintLib:PrintLibInternal.obj
 0002:000012fc       ??_C@_09NKFGCIPN@Not?5Ready?$AA@ 000092fc     BasePrintLib:PrintLibInternal.obj
 0002:00001308       ??_C@_0N@HHEABDHO@Device?5Error?$AA@ 00009308     BasePrintLib:PrintLibInternal.obj
 0002:00001318       ??_C@_0BA@LNEDDFNB@Write?5Protected?$AA@ 00009318     BasePrintLib:PrintLibInternal.obj
 0002:00001328       ??_C@_0BB@GOILNEAA@Out?5of?5Resources?$AA@ 00009328     BasePrintLib:PrintLibInternal.obj
 0002:0000133c       ??_C@_0P@EIOJGIF@Volume?5Corrupt?$AA@ 0000933c     BasePrintLib:PrintLibInternal.obj
 0002:0000134c       ??_C@_0M@HDLEPOFA@Volume?5Full?$AA@ 0000934c     BasePrintLib:PrintLibInternal.obj
 0002:00001358       ??_C@_08KEGAJDNN@No?5Media?$AA@ 00009358     BasePrintLib:PrintLibInternal.obj
 0002:00001364       ??_C@_0O@JNCJKCCD@Media?5changed?$AA@ 00009364     BasePrintLib:PrintLibInternal.obj
 0002:00001374       ??_C@_09CFCBFJND@Not?5Found?$AA@ 00009374     BasePrintLib:PrintLibInternal.obj
 0002:00001380       ??_C@_0O@NFHOBIDO@Access?5Denied?$AA@ 00009380     BasePrintLib:PrintLibInternal.obj
 0002:00001390       ??_C@_0M@ENKCBFEP@No?5Response?$AA@ 00009390     BasePrintLib:PrintLibInternal.obj
 0002:0000139c       ??_C@_0L@IFPBNFC@No?5mapping?$AA@ 0000939c     BasePrintLib:PrintLibInternal.obj
 0002:000013a8       ??_C@_08PAFJCNGP@Time?5out?$AA@ 000093a8     BasePrintLib:PrintLibInternal.obj
 0002:000013b4       ??_C@_0M@DCJFAFHJ@Not?5started?$AA@ 000093b4     BasePrintLib:PrintLibInternal.obj
 0002:000013c0       ??_C@_0BA@IGIBFFPH@Already?5started?$AA@ 000093c0     BasePrintLib:PrintLibInternal.obj
 0002:000013d0       ??_C@_07LCKDCBKK@Aborted?$AA@ 000093d0     BasePrintLib:PrintLibInternal.obj
 0002:000013d8       ??_C@_0L@LKIFCMNO@ICMP?5Error?$AA@ 000093d8     BasePrintLib:PrintLibInternal.obj
 0002:000013e4       ??_C@_0L@DJKNJKHM@TFTP?5Error?$AA@ 000093e4     BasePrintLib:PrintLibInternal.obj
 0002:000013f0       ??_C@_0P@NCJHBCLM@Protocol?5Error?$AA@ 000093f0     BasePrintLib:PrintLibInternal.obj
 0002:00001400       ??_C@_0DO@GOAMAIEG@d?3?2myworkspace?2MdePkg?2Library?2Ba@ 00009400     BasePrintLib:PrintLibInternal.obj
 0002:00001440       ??_C@_0CB@NIHAJGJE@StrSize?5?$CI?$CICHAR16?5?$CK?$CJ?5Format?$CJ?5?$CB?$DN?50@ 00009440     BasePrintLib:PrintLibInternal.obj
 0002:00001464       ??_C@_0BL@BFEFANFD@AsciiStrSize?5?$CIFormat?$CJ?5?$CB?$DN?50?$AA@ 00009464     BasePrintLib:PrintLibInternal.obj
 0002:00001480       ??_C@_0O@MLOLIMFM@?$DMnull?5string?$DO?$AA@ 00009480     BasePrintLib:PrintLibInternal.obj
 0002:00001490       ??_C@_0M@BJJDNPHK@?$DMnull?5guid?$DO?$AA@ 00009490     BasePrintLib:PrintLibInternal.obj
 0002:0000149c       ??_C@_0DB@PMLHLBMO@?$CF08x?9?$CF04x?9?$CF04x?9?$CF02x?$CF02x?9?$CF02x?$CF02x@ 0000949c     BasePrintLib:PrintLibInternal.obj
 0002:000014d0       ??_C@_0M@LHGBCIKM@?$DMnull?5time?$DO?$AA@ 000094d0     BasePrintLib:PrintLibInternal.obj
 0002:000014dc       ??_C@_0BK@FCPKCIDD@?$CF02d?1?$CF02d?1?$CF04d?5?5?$CF02d?3?$CF02d?$AA@ 000094dc     BasePrintLib:PrintLibInternal.obj
 0002:000014f8       ??_C@_04JIMNDDED@?$CF08X?$AA@ 000094f8     BasePrintLib:PrintLibInternal.obj
 0002:00001500       ??_C@_02PCIJFNDE@?$AN?6?$AA@ 00009500     BasePrintLib:PrintLibInternal.obj
 0002:00001504       ??_C@_01LIIJDEN@?$AN?$AA@  00009504     BasePrintLib:PrintLibInternal.obj
 0002:00001508       ??_C@_0EM@FPGGOFNC@?$CI?$CI?$CIFlags?5?$CG?50x00000040?$CJ?5?$DN?$DN?50?$CJ?$CJ?5?$HM?$HM@ 00009508     BasePrintLib:PrintLibInternal.obj
 0002:00001558       ??_C@_0EG@NFDMKACK@?$CI?$CI?$CIFlags?5?$CG?50x00000040?$CJ?5?$CB?$DN?50?$CJ?$CJ?5?$HM?$HM@ 00009558     BasePrintLib:PrintLibInternal.obj
 0002:000015a0       _mHexStr                   000095a0     BasePrintLib:PrintLibInternal.obj
 0002:000015b0       ??_C@_0DL@HKFHNCLF@d?3?2myworkspace?2MdePkg?2Library?2Ba@ 000095b0     BaseLib:DivU64x32Remainder.obj
 0003:00000000       _gEfiLoadedImageProtocolGuid 0000a000     UefiPxeBcDxe:AutoGen.obj
 0003:00000010       _gEfiIp4ProtocolGuid       0000a010     UefiPxeBcDxe:AutoGen.obj
 0003:00000020       _gEfiDpcProtocolGuid       0000a020     UefiPxeBcDxe:AutoGen.obj
 0003:00000030       _gEfiPxeBaseCodeProtocolGuid 0000a030     UefiPxeBcDxe:AutoGen.obj
 0003:00000040       _gEfiHiiFontProtocolGuid   0000a040     UefiPxeBcDxe:AutoGen.obj
 0003:00000050       _gEfiDebugMaskProtocolGuid 0000a050     UefiPxeBcDxe:AutoGen.obj
 0003:00000060       _gEfiHiiDatabaseProtocolGuid 0000a060     UefiPxeBcDxe:AutoGen.obj
 0003:00000070       _gEfiHiiConfigRoutingProtocolGuid 0000a070     UefiPxeBcDxe:AutoGen.obj
 0003:00000080       _gEfiComponentName2ProtocolGuid 0000a080     UefiPxeBcDxe:AutoGen.obj
 0003:00000090       _gEfiNetworkInterfaceIdentifierProtocolGuid_31 0000a090     UefiPxeBcDxe:AutoGen.obj
 0003:000000a0       _gEfiHobListGuid           0000a0a0     UefiPxeBcDxe:AutoGen.obj
 0003:000000b0       _gEfiHiiImageProtocolGuid  0000a0b0     UefiPxeBcDxe:AutoGen.obj
 0003:000000c0       _gEfiDevicePathProtocolGuid 0000a0c0     UefiPxeBcDxe:AutoGen.obj
 0003:000000d0       _gEfiDhcp4ServiceBindingProtocolGuid 0000a0d0     UefiPxeBcDxe:AutoGen.obj
 0003:000000e0       _gEfiUdp4ServiceBindingProtocolGuid 0000a0e0     UefiPxeBcDxe:AutoGen.obj
 0003:000000f0       _gEfiHiiStringProtocolGuid 0000a0f0     UefiPxeBcDxe:AutoGen.obj
 0003:00000100       _gEfiArpServiceBindingProtocolGuid 0000a100     UefiPxeBcDxe:AutoGen.obj
 0003:00000110       _gEfiDhcp4ProtocolGuid     0000a110     UefiPxeBcDxe:AutoGen.obj
 0003:00000120       _gEfiMtftp4ProtocolGuid    0000a120     UefiPxeBcDxe:AutoGen.obj
 0003:00000130       _gEfiSmbiosTableGuid       0000a130     UefiPxeBcDxe:AutoGen.obj
 0003:00000140       _gEfiGenericVariableGuid   0000a140     UefiPxeBcDxe:AutoGen.obj
 0003:00000150       _gEfiSimpleNetworkProtocolGuid 0000a150     UefiPxeBcDxe:AutoGen.obj
 0003:00000160       _gEfiUdp4ProtocolGuid      0000a160     UefiPxeBcDxe:AutoGen.obj
 0003:00000170       _gEfiCallerIdGuid          0000a170     UefiPxeBcDxe:AutoGen.obj
 0003:00000180       _gEfiStatusCodeDataTypeDebugGuid 0000a180     UefiPxeBcDxe:AutoGen.obj
 0003:00000190       _gEfiDriverBindingProtocolGuid 0000a190     UefiPxeBcDxe:AutoGen.obj
 0003:000001a0       _gEfiIp4ServiceBindingProtocolGuid 0000a1a0     UefiPxeBcDxe:AutoGen.obj
 0003:000001b0       _gEfiArpProtocolGuid       0000a1b0     UefiPxeBcDxe:AutoGen.obj
 0003:000001c0       _gEfiStatusCodeSpecificDataGuid 0000a1c0     UefiPxeBcDxe:AutoGen.obj
 0003:000001d0       _gEfiComponentNameProtocolGuid 0000a1d0     UefiPxeBcDxe:AutoGen.obj
 0003:000001e0       _gEfiMtftp4ServiceBindingProtocolGuid 0000a1e0     UefiPxeBcDxe:AutoGen.obj
 0003:000001f0       _gEfiPxeBaseCodeCallbackProtocolGuid 0000a1f0     UefiPxeBcDxe:AutoGen.obj
 0003:00000200       _gEfiStatusCodeRuntimeProtocolGuid 0000a200     UefiPxeBcDxe:AutoGen.obj
 0003:00000210       _gEfiLoadFileProtocolGuid  0000a210     UefiPxeBcDxe:AutoGen.obj
 0003:00000220       _gPxeBcDriverBinding       0000a220     UefiPxeBcDxe:PxeBcDriver.obj
 0003:00000238       _mLoadFileProtocolTemplate 0000a238     UefiPxeBcDxe:PxeBcImpl.obj
 0003:00000240       _mPxeBcProtocolTemplate    0000a240     UefiPxeBcDxe:PxeBcImpl.obj
 0003:00000280       _mPxeBcCallBackTemplate    0000a280     UefiPxeBcDxe:PxeBcImpl.obj
 0003:00000290       _mPxeDhcpTimeout           0000a290     UefiPxeBcDxe:PxeBcImpl.obj
 0003:000002a0       _mInterestedDhcp4Tags      0000a2a0     UefiPxeBcDxe:PxeBcDhcp.obj
 0003:000002a8       _mMtftpOptions             0000a2a8     UefiPxeBcDxe:PxeBcMtftp.obj
 0003:000002b8       _mDebugMaskProtocol        0000a2b8     DxeDebugPrintErrorLevelLib:DxeDebugPrintErrorLevelLib.obj
 0003:000002c8       _gPxeBcComponentName2      0000a2c8     UefiPxeBcDxe:ComponentName.obj
 0003:000002d4       _gPxeBcComponentName       0000a2d4     UefiPxeBcDxe:ComponentName.obj
 0003:000002e0       _mPxeBcDriverNameTable     0000a2e0     UefiPxeBcDxe:ComponentName.obj
 0003:000002f0       _mPxeBcControllerNameTable 0000a2f0     UefiPxeBcDxe:ComponentName.obj
 0003:00000300       _gIp4AllMasks              0000a300     DxeNetLib:DxeNetLib.obj
 0003:00000388       _mStatusString             0000a388     BasePrintLib:PrintLibInternal.obj
 0003:000003fc       _gST                       0000a3fc     UefiBootServicesTableLib:UefiBootServicesTableLib.obj
 0003:00000400       _gBS                       0000a400     UefiBootServicesTableLib:UefiBootServicesTableLib.obj
 0003:00000404       _gImageHandle              0000a404     UefiBootServicesTableLib:UefiBootServicesTableLib.obj
 0003:00000408       _gRT                       0000a408     UefiRuntimeServicesTableLib:UefiRuntimeServicesTableLib.obj
 0003:0000040c       _mHobList                  0000a40c     DxeHobLib:HobLib.obj
 0003:00000410       _mDebugPrintErrorLevel     0000a410     DxeDebugPrintErrorLevelLib:DxeDebugPrintErrorLevelLib.obj
 0003:00000414       _mGlobalErrorLevelInitialized 0000a414     DxeDebugPrintErrorLevelLib:DxeDebugPrintErrorLevelLib.obj
 0003:00000418       _mSystemTable              0000a418     DxeDebugPrintErrorLevelLib:DxeDebugPrintErrorLevelLib.obj
 0003:0000041c       _gHiiImage                 0000a41c     UefiHiiServicesLib:UefiHiiServicesLib.obj
 0003:00000420       _gHiiFont                  0000a420     UefiHiiServicesLib:UefiHiiServicesLib.obj
 0003:00000424       _gHiiString                0000a424     UefiHiiServicesLib:UefiHiiServicesLib.obj
 0003:00000428       _gHiiDatabase              0000a428     UefiHiiServicesLib:UefiHiiServicesLib.obj
 0003:0000042c       _gHiiConfigRouting         0000a42c     UefiHiiServicesLib:UefiHiiServicesLib.obj
 0003:00000430       _mReportStatusCodeLibStatusCodeProtocol 0000a430     DxeReportStatusCodeLib:ReportStatusCodeLib.obj
 0003:00000434       _mUefiFormBrowser2         0000a434     UefiHiiLib:HiiLib.obj
 0003:00000438       _mZeroIp4Addr              0000a438     DxeNetLib:DxeNetLib.obj
 0003:0000043c       _mDpc                      0000a43c     <common>

 entry point at        0001:00000023

 Static symbols

 0001:00003df2       $LN33                      00004df2     * CIL library *:* CIL module *
 0001:00006b30       $$000000                   00007b30     BaseMemoryLibOptDxe:CopyMem.obj
 0001:00006ba0       $$000000                   00007ba0     BaseMemoryLibOptDxe:ZeroMem.obj
 0001:00006bc0       $$000000                   00007bc0     BaseMemoryLibOptDxe:CompareMem.obj
 0001:00006be0       $$000000                   00007be0     BaseMemoryLibOptDxe:SetMem.obj
 0001:00006c0c       $$000000                   00007c0c     BaseMemoryLibOptDxe:SetMem32.obj
 0001:00006c24       $$000000                   00007c24     BaseMemoryLibOptDxe:SetMem64.obj
 0004:00000000       .edata                     0000b000     UefiPxeBcDxe.exp
 0004:00000028       rgpv                       0000b028     UefiPxeBcDxe.exp
 0004:0000002c       rgszName                   0000b02c     UefiPxeBcDxe.exp
 0004:00000030       rgwOrd                     0000b030     UefiPxeBcDxe.exp
 0004:00000032       szName                     0000b032     UefiPxeBcDxe.exp
 0004:00000043       $N00001                    0000b043     UefiPxeBcDxe.exp
