 ResetSystemRuntimeDxe

 Timestamp is 527c4160 (Fri Nov 08 09:41:52 2013)

 Preferred load address is 00000000

 Start         Length     Name                   Class
 0001:00000000 000000b4H .data                   CODE
 0001:000000b8 000008d7H .rdata                  CODE
 0001:0000098f 000011fcH .text                   CODE
 0001:00001b8c 00000024H .bss                    CODE

  Address         Publics by Value              Rva+Base       Lib:Object

 0001:00000000       _gEfiResetArchProtocolGuid 00000220     ResetSystemRuntimeDxe:AutoGen.obj
 0001:00000010       _gEfiEventVirtualAddressChangeGuid 00000230     ResetSystemRuntimeDxe:AutoGen.obj
 0001:00000020       _gEfiEventExitBootServicesGuid 00000240     ResetSystemRuntimeDxe:AutoGen.obj
 0001:00000030       _gEfiCapsuleVendorGuid     00000250     ResetSystemRuntimeDxe:AutoGen.obj
 0001:00000040       _mStatusString             00000260     BasePrintLib:PrintLibInternal.obj
 0001:000000b8       ??_C@_0CB@DMEJJJHA@?6ASSERT_EFI_ERROR?5?$CIStatus?5?$DN?5?$CFr?$CJ?6@ 000002d8     UefiDriverEntryPoint:DriverEntryPoint.obj
 0001:000000dc       ??_C@_0BE@DCHLEIGN@?$CBEFI_ERROR?5?$CIStatus?$CJ?$AA@ 000002fc     UefiDriverEntryPoint:DriverEntryPoint.obj
 0001:000000f0       __gUefiDriverRevision      00000310     ResetSystemRuntimeDxe:AutoGen.obj
 0001:000000f8       ??_C@_0IN@LKONLHJA@d?3?2myworkspace?2Build?2MdeModule?2R@ 00000318     ResetSystemRuntimeDxe:AutoGen.obj
 0001:00000188       ??_C@_0EK@EAABECGF@d?3?2myworkspace?2MdeModulePkg?2Univ@ 000003a8     ResetSystemRuntimeDxe:ResetSystem.obj
 0001:000001d4       ??_C@_0DJ@CCAELAAB@?$CGgEfiResetArchProtocolGuid?5alrea@ 000003f4     ResetSystemRuntimeDxe:ResetSystem.obj
 0001:00000210       ??_C@_1CE@KAHHLODK@?$AAC?$AAa?$AAp?$AAs?$AAu?$AAl?$AAe?$AAU?$AAp?$AAd?$AAa?$AAt?$AAe?$AAD?$AAa?$AAt?$AAa?$AA?$AA@ 00000430     ResetSystemRuntimeDxe:ResetSystem.obj
 0001:00000234       ??_C@_0BC@FEDIJHFF@?$CI?$CIBOOLEAN?$CJ?$CI0?$DN?$DN1?$CJ?$CJ?$AA@ 00000454     ResetSystemRuntimeDxe:ResetSystem.obj
 0001:00000248       ??_C@_0BH@LKMBFCBF@Format?5?$CB?$DN?5?$CI?$CIvoid?5?$CK?$CJ?50?$CJ?$AA@ 00000468     UefiDebugLibConOut:DebugLib.obj
 0001:00000260       ??_C@_0DM@OJNICEHB@d?3?2myworkspace?2MdePkg?2Library?2Ue@ 00000480     UefiDebugLibConOut:DebugLib.obj
 0001:0000029c       ??_C@_0BD@OMEPNDED@ASSERT?5?$CFa?$CI?$CFd?$CJ?3?5?$CFa?6?$AA@ 000004bc     UefiDebugLibConOut:DebugLib.obj
 0001:000002b0       ??_C@_0BH@IACGKAP@Buffer?5?$CB?$DN?5?$CI?$CIvoid?5?$CK?$CJ?50?$CJ?$AA@ 000004d0     UefiDebugLibConOut:DebugLib.obj
 0001:000002c8       ??_C@_0BN@COECPDCC@gImageHandle?5?$CB?$DN?5?$CI?$CIvoid?5?$CK?$CJ?50?$CJ?$AA@ 000004e8     UefiBootServicesTableLib:UefiBootServicesTableLib.obj
 0001:000002e8       ??_C@_0FC@CHGHPDAC@d?3?2myworkspace?2MdePkg?2Library?2Ue@ 00000508     UefiBootServicesTableLib:UefiBootServicesTableLib.obj
 0001:0000033c       ??_C@_0BE@DGNHAHIL@gST?5?$CB?$DN?5?$CI?$CIvoid?5?$CK?$CJ?50?$CJ?$AA@ 0000055c     UefiBootServicesTableLib:UefiBootServicesTableLib.obj
 0001:00000350       ??_C@_0BE@BDFJLGLN@gBS?5?$CB?$DN?5?$CI?$CIvoid?5?$CK?$CJ?50?$CJ?$AA@ 00000570     UefiBootServicesTableLib:UefiBootServicesTableLib.obj
 0001:00000364       ??_C@_0BE@OBDFIHND@gRT?5?$CB?$DN?5?$CI?$CIvoid?5?$CK?$CJ?50?$CJ?$AA@ 00000584     UefiRuntimeServicesTableLib:UefiRuntimeServicesTableLib.obj
 0001:00000378       ??_C@_0FI@JAAEOOHA@d?3?2myworkspace?2MdePkg?2Library?2Ue@ 00000598     UefiRuntimeServicesTableLib:UefiRuntimeServicesTableLib.obj
 0001:000003d0       ??_C@_0FE@HMBPMGFL@d?3?2myworkspace?2MdeModulePkg?2Libr@ 000005f0     BaseResetSystemLibNull:BaseResetSystemLibNull.obj
 0001:00000424       ??_C@_0DK@BKHBGLKC@d?3?2myworkspace?2MdePkg?2Library?2Ue@ 00000644     UefiRuntimeLib:RuntimeLib.obj
 0001:00000460       ??_C@_0CI@BGLNHBLM@?$CI?$CI?$CIUINTN?$CJ?5?$CIStartOfBuffer?$CJ?$CJ?5?$CG?50x0@ 00000680     BasePrintLib:PrintLib.obj
 0001:00000488       ??_C@_0DG@PDLDNIEO@d?3?2myworkspace?2MdePkg?2Library?2Ba@ 000006a8     BasePrintLib:PrintLib.obj
 0001:000004c0       ??_C@_07PBILKAFL@Success?$AA@ 000006e0     BasePrintLib:PrintLibInternal.obj
 0001:000004c8       ??_C@_0BG@CFJMNNJK@Warning?5Unknown?5Glyph?$AA@ 000006e8     BasePrintLib:PrintLibInternal.obj
 0001:000004e0       ??_C@_0BH@GKKCJEPJ@Warning?5Delete?5Failure?$AA@ 00000700     BasePrintLib:PrintLibInternal.obj
 0001:000004f8       ??_C@_0BG@ECIJMOED@Warning?5Write?5Failure?$AA@ 00000718     BasePrintLib:PrintLibInternal.obj
 0001:00000510       ??_C@_0BJ@ODIPDGHB@Warning?5Buffer?5Too?5Small?$AA@ 00000730     BasePrintLib:PrintLibInternal.obj
 0001:0000052c       ??_C@_0L@PLPBEPPC@Load?5Error?$AA@ 0000074c     BasePrintLib:PrintLibInternal.obj
 0001:00000538       ??_C@_0BC@HOFHKGJN@Invalid?5Parameter?$AA@ 00000758     BasePrintLib:PrintLibInternal.obj
 0001:0000054c       ??_C@_0M@BEECMOIL@Unsupported?$AA@ 0000076c     BasePrintLib:PrintLibInternal.obj
 0001:00000558       ??_C@_0BA@FLNMPMCF@Bad?5Buffer?5Size?$AA@ 00000778     BasePrintLib:PrintLibInternal.obj
 0001:00000568       ??_C@_0BB@EGELJFOB@Buffer?5Too?5Small?$AA@ 00000788     BasePrintLib:PrintLibInternal.obj
 0001:0000057c       ??_C@_09NKFGCIPN@Not?5Ready?$AA@ 0000079c     BasePrintLib:PrintLibInternal.obj
 0001:00000588       ??_C@_0N@HHEABDHO@Device?5Error?$AA@ 000007a8     BasePrintLib:PrintLibInternal.obj
 0001:00000598       ??_C@_0BA@LNEDDFNB@Write?5Protected?$AA@ 000007b8     BasePrintLib:PrintLibInternal.obj
 0001:000005a8       ??_C@_0BB@GOILNEAA@Out?5of?5Resources?$AA@ 000007c8     BasePrintLib:PrintLibInternal.obj
 0001:000005bc       ??_C@_0P@EIOJGIF@Volume?5Corrupt?$AA@ 000007dc     BasePrintLib:PrintLibInternal.obj
 0001:000005cc       ??_C@_0M@HDLEPOFA@Volume?5Full?$AA@ 000007ec     BasePrintLib:PrintLibInternal.obj
 0001:000005d8       ??_C@_08KEGAJDNN@No?5Media?$AA@ 000007f8     BasePrintLib:PrintLibInternal.obj
 0001:000005e4       ??_C@_0O@JNCJKCCD@Media?5changed?$AA@ 00000804     BasePrintLib:PrintLibInternal.obj
 0001:000005f4       ??_C@_09CFCBFJND@Not?5Found?$AA@ 00000814     BasePrintLib:PrintLibInternal.obj
 0001:00000600       ??_C@_0O@NFHOBIDO@Access?5Denied?$AA@ 00000820     BasePrintLib:PrintLibInternal.obj
 0001:00000610       ??_C@_0M@ENKCBFEP@No?5Response?$AA@ 00000830     BasePrintLib:PrintLibInternal.obj
 0001:0000061c       ??_C@_0L@IFPBNFC@No?5mapping?$AA@ 0000083c     BasePrintLib:PrintLibInternal.obj
 0001:00000628       ??_C@_08PAFJCNGP@Time?5out?$AA@ 00000848     BasePrintLib:PrintLibInternal.obj
 0001:00000634       ??_C@_0M@DCJFAFHJ@Not?5started?$AA@ 00000854     BasePrintLib:PrintLibInternal.obj
 0001:00000640       ??_C@_0BA@IGIBFFPH@Already?5started?$AA@ 00000860     BasePrintLib:PrintLibInternal.obj
 0001:00000650       ??_C@_07LCKDCBKK@Aborted?$AA@ 00000870     BasePrintLib:PrintLibInternal.obj
 0001:00000658       ??_C@_0L@LKIFCMNO@ICMP?5Error?$AA@ 00000878     BasePrintLib:PrintLibInternal.obj
 0001:00000664       ??_C@_0L@DJKNJKHM@TFTP?5Error?$AA@ 00000884     BasePrintLib:PrintLibInternal.obj
 0001:00000670       ??_C@_0P@NCJHBCLM@Protocol?5Error?$AA@ 00000890     BasePrintLib:PrintLibInternal.obj
 0001:00000680       ??_C@_0DO@GOAMAIEG@d?3?2myworkspace?2MdePkg?2Library?2Ba@ 000008a0     BasePrintLib:PrintLibInternal.obj
 0001:000006c0       ??_C@_0CB@NIHAJGJE@StrSize?5?$CI?$CICHAR16?5?$CK?$CJ?5Format?$CJ?5?$CB?$DN?50@ 000008e0     BasePrintLib:PrintLibInternal.obj
 0001:000006e4       ??_C@_0BL@BFEFANFD@AsciiStrSize?5?$CIFormat?$CJ?5?$CB?$DN?50?$AA@ 00000904     BasePrintLib:PrintLibInternal.obj
 0001:00000700       ??_C@_0O@MLOLIMFM@?$DMnull?5string?$DO?$AA@ 00000920     BasePrintLib:PrintLibInternal.obj
 0001:00000710       ??_C@_0M@BJJDNPHK@?$DMnull?5guid?$DO?$AA@ 00000930     BasePrintLib:PrintLibInternal.obj
 0001:0000071c       ??_C@_0DB@PMLHLBMO@?$CF08x?9?$CF04x?9?$CF04x?9?$CF02x?$CF02x?9?$CF02x?$CF02x@ 0000093c     BasePrintLib:PrintLibInternal.obj
 0001:00000750       ??_C@_0M@LHGBCIKM@?$DMnull?5time?$DO?$AA@ 00000970     BasePrintLib:PrintLibInternal.obj
 0001:0000075c       ??_C@_0BK@FCPKCIDD@?$CF02d?1?$CF02d?1?$CF04d?5?5?$CF02d?3?$CF02d?$AA@ 0000097c     BasePrintLib:PrintLibInternal.obj
 0001:00000778       ??_C@_04JIMNDDED@?$CF08X?$AA@ 00000998     BasePrintLib:PrintLibInternal.obj
 0001:00000780       ??_C@_02PCIJFNDE@?$AN?6?$AA@ 000009a0     BasePrintLib:PrintLibInternal.obj
 0001:00000784       ??_C@_01LIIJDEN@?$AN?$AA@  000009a4     BasePrintLib:PrintLibInternal.obj
 0001:00000788       ??_C@_0EM@FPGGOFNC@?$CI?$CI?$CIFlags?5?$CG?50x00000040?$CJ?5?$DN?$DN?50?$CJ?$CJ?5?$HM?$HM@ 000009a8     BasePrintLib:PrintLibInternal.obj
 0001:000007d8       ??_C@_0EG@NFDMKACK@?$CI?$CI?$CIFlags?5?$CG?50x00000040?$CJ?5?$CB?$DN?50?$CJ?$CJ?5?$HM?$HM@ 000009f8     BasePrintLib:PrintLibInternal.obj
 0001:00000820       _mHexStr                   00000a40     BasePrintLib:PrintLibInternal.obj
 0001:00000830       ??_C@_0CP@EAMGNBHJ@d?3?2myworkspace?2MdePkg?2Library?2Ba@ 00000a50     BaseLib:String.obj
 0001:00000860       ??_C@_0BH@MAAHKCPC@String?5?$CB?$DN?5?$CI?$CIvoid?5?$CK?$CJ?50?$CJ?$AA@ 00000a80     BaseLib:String.obj
 0001:00000878       ??_C@_0CD@BDCLIGHD@?$CI?$CIUINTN?$CJ?5String?5?$CG?50x00000001?$CJ?5?$DN?$DN@ 00000a98     BaseLib:String.obj
 0001:0000089c       ??_C@_0DK@EOJCOAME@Length?5?$DM?5_gPcd_FixedAtBuild_PcdM@ 00000abc     BaseLib:String.obj
 0001:000008d8       ??_C@_0DI@MDIKFADO@Length?5?$DM?5_gPcd_FixedAtBuild_PcdM@ 00000af8     BaseLib:String.obj
 0001:00000910       ??_C@_0DC@NGPEEDEA@d?3?2myworkspace?2MdePkg?2Library?2Ba@ 00000b30     BaseLib:Unaligned.obj
 0001:00000944       ??_C@_0N@KGHEHMDL@Divisor?5?$CB?$DN?50?$AA@ 00000b64     BaseLib:DivU64x32Remainder.obj
 0001:00000954       ??_C@_0DL@HKFHNCLF@d?3?2myworkspace?2MdePkg?2Library?2Ba@ 00000b74     BaseLib:DivU64x32Remainder.obj
 0001:0000098f       __ModuleEntryPoint         00000baf f   UefiDriverEntryPoint:DriverEntryPoint.obj
 0001:000009b1       _ProcessLibraryConstructorList 00000bd1 f   ResetSystemRuntimeDxe:AutoGen.obj
 0001:00000a5c       _ProcessLibraryDestructorList 00000c7c f   ResetSystemRuntimeDxe:AutoGen.obj
 0001:00000a8d       _InitializeResetSystem     00000cad f   ResetSystemRuntimeDxe:ResetSystem.obj
 0001:00000b17       _ResetSystem               00000d37 f   ResetSystemRuntimeDxe:ResetSystem.obj
 0001:00000bc0       _DebugPrint                00000de0 f   UefiDebugLibConOut:DebugLib.obj
 0001:00000c23       _DebugAssert               00000e43 f   UefiDebugLibConOut:DebugLib.obj
 0001:00000c68       _RuntimeLibExitBootServicesEvent 00000e88 f   UefiRuntimeLib:RuntimeLib.obj
 0001:00000c70       _RuntimeLibVirtualNotifyEvent 00000e90 f   UefiRuntimeLib:RuntimeLib.obj
 0001:00000c7d       _RuntimeDriverLibConstruct 00000e9d f   UefiRuntimeLib:RuntimeLib.obj
 0001:00000d5c       _RuntimeDriverLibDeconstruct 00000f7c f   UefiRuntimeLib:RuntimeLib.obj
 0001:00000df1       _EfiConvertPointer         00001011 f   UefiRuntimeLib:RuntimeLib.obj
 0001:00000e03       _UnicodeVSPrintAsciiFormat 00001023 f   BasePrintLib:PrintLib.obj
 0001:00000e3f       _UnicodeSPrintAsciiFormat  0000105f f   BasePrintLib:PrintLib.obj
 0001:00000e58       _BasePrintLibFillBuffer    00001078 f   BasePrintLib:PrintLibInternal.obj
 0001:00000e8c       _BasePrintLibValueToString 000010ac f   BasePrintLib:PrintLibInternal.obj
 0001:00000eef       _BasePrintLibSPrintMarker  0000110f f   BasePrintLib:PrintLibInternal.obj
 0001:00001a8d       _BasePrintLibSPrint        00001cad f   BasePrintLib:PrintLibInternal.obj
 0001:00001aac       _StrLen                    00001ccc f   BaseLib:String.obj
 0001:00001b14       _StrSize                   00001d34 f   BaseLib:String.obj
 0001:00001b21       _AsciiStrLen               00001d41 f   BaseLib:String.obj
 0001:00001b6c       _ReadUnaligned16           00001d8c f   BaseLib:Unaligned.obj
 0001:00001b8c       _mResetHandle              00001dac     ResetSystemRuntimeDxe:ResetSystem.obj
 0001:00001b90       _gST                       00001db0     UefiBootServicesTableLib:UefiBootServicesTableLib.obj
 0001:00001b94       _gBS                       00001db4     UefiBootServicesTableLib:UefiBootServicesTableLib.obj
 0001:00001b98       _gImageHandle              00001db8     UefiBootServicesTableLib:UefiBootServicesTableLib.obj
 0001:00001b9c       _gRT                       00001dbc     UefiRuntimeServicesTableLib:UefiRuntimeServicesTableLib.obj
 0001:00001ba0       _mEfiAtRuntime             00001dc0     UefiRuntimeLib:RuntimeLib.obj
 0001:00001ba1       _mEfiGoneVirtual           00001dc1     UefiRuntimeLib:RuntimeLib.obj
 0001:00001ba4       _mEfiExitBootServicesEvent 00001dc4     <common>
 0001:00001ba8       _mEfiVirtualNotifyEvent    00001dc8     <common>
 0001:00001bac       _mInternalRT               00001dcc     <common>

 entry point at        0001:0000098f

 Static symbols

